(lp1
F-2.602546192822738
aF0
aF-2.7263050765709962
aF2.7263050765709962
aF-2.8623825529145668
aF2.7263050765709962
aF-2.7263050765709962
aF0
aF0
aF0
aF-0.12375888374825436
aF2.7261331892324545
aF-2.7261331892324545
aF-0.13636395524113873
aF-2.5777371202935657
aF-2.4681302940850474
aF0
aF-2.7263050765709962
aF2.7263050765709962
aF-2.7263050765709962
aF-2.7261331892324545
aF2.7261331892324545
aF0
aF0
aF-5.4402342647671587
aF-0.12375888374825794
aF2.8378026635034543
aF-5.4403488563261924
aF0
aF2.7263050765709962
aF-21.62858380839344
aF2.602546192822738
aF-5.7106130482894013
aF-2.848230495374835
aF-2.6897503692416498
aF-0.40066938613498465
aF0
aF1.3609466507742394
aF-4.8644689764401994
aF3.9004674861325905
aF-3.9004674861325905
aF-1.3321841694586782
aF-2.6894638903440957
aF-3.8136070843907568
aF3.8136070843907568
aF0
aF0
aF-2.6629932402090413
aF0
aF0
aF-0.27158199489200829
aF0
aF0
aF-0.70731639808900093
aF3.4336787704395113
aF0
aF-5.1491717048407022
aF2.8367140436927154
aF-1.4753663224618663
aF-1.1184136160953659
aF3.5448898784744087
aF-6.0956979823968274
aF0
aF-0.7540124583921668
aF0
aF0
aF-0.12719663051903637
aF0
aF-0.82631973213767274
aF-1.7644808258848828
aF3.3446411290761811
aF-4.279421771832121
aF2.6992614686408221
aF-2.7267061470275888
aF0
aF-5.8693796533201583
aF0
aF0
aF-1.7899201519886945
aF0
aF-1.3836930752409446
aF-1.2186812302432553
aF-28.639295389614194
aF0
aF2.6029472632793347
aF0
aF-2.7267061470275888
aF-4.6724708192918643
aF1.0324699468257519
aF-2.6092497990257768
aF2.3124576611479872
aF-1.6524102811573056
aF0
aF-19.905814309994089
aF-5.4403488563261924
aF2.8623825529145668
aF2.1107765172619644
aF-3.931636390187716
aF0
aF3.7311011618919121
aF-2.5124199316486568
aF-2.5508081039224191
aF0
aF0
aF-6.2131543303986527
aF4.8621198494801625
aF-2.6081038834355077
aF0
aF0.23777748497927181
aF-1.8391945223699309
aF-1.9749855198159605
aF0
aF-3.2519365578240134
aF0
aF-3.5437439628841521
aF3.5437439628841521
aF-6.8880986130627688
aF-3.5036369172249864
aF0
aF-1.3607747634357017
aF-2.6023743054841999
aF0
aF-2.5920610651718414
aF1.1934710872575121
aF-2.4121523175007673
aF0
aF-0.36497411549833364
aF-2.6545134648411031
aF-0.40049749879644841
aF-2.7794182641796263
aF-3.4337360662190259
aF-5.668271467229232
aF5.668271467229232
aF-5.7106703440689106
aF5.1944353706560413
aF0
aF-2.5909151495815848
aF0
aF2.5909151495815848
aF-5.253450023554521
aF3.4893129723467107
aF-2.4395397001080132
aF0
aF-1.4111950494072263
aF-1.2960305325859143
aF0
aF0
aF0
aF-0.12375888374825436
aF2.7267061470275888
aF-2.8624971444735929
aF-40.162679861064831
aF-1.9749282240364394
aF1.9749282240364394
aF-1.9749282240364394
aF-1.974928224036433
aF0
aF5.1021891656399978
aF-0.93506712165349726
aF-4.002683156783946
aF1.3940063155532907
aF-61.432993160162972
aF-2.5779663034116256
aF-0.27026419196320928
aF-2.848230495374835
aF-3.2620206150183155
aF3.2521084451625608
aF-5.9066219100036514
aF-2.9352627844552264
aF2.9352627844552264
aF-2.4190278110423566
aF-2.6029472632793347
aF2.6029472632793347
aF-2.7267061470275888
aF2.5783100780887005
aF0
aF-6.060575669555309
aF2.1107192214824373
aF0
aF0
aF0
aF-2.511274016058413
aF-1.0324699468257392
aF-1.3940063155532907
aF-2.337094846338621
aF0
aF0
aF-2.7263050765709962
aF2.8623825529145668
aF0.15040142122184083
aF-3.0127839741364077
aF-0.82677809837377469
aF-2.6625348739729233
aF3.4893129723466982
aF-0.82677809837377469
aF0
aF-2.3668886516854282
aF-0.47097130759753064
aF0
aF-0.26986312150661729
aF-0.29851101126316804
aF-3.3581056372617577
aF0
aF-0.40049749879644841
aF2.6894638903440833
aF2.5399219058149383
aF-2.3302193527970569
aF-1.8403404379602255
aF2.078117922939497
aF-1.9663911528889673
aF0
aF2.6629932402090413
aF-2.6629932402090413
aF-2.6629932402090413
aF-0.82631973213767274
aF3.4893129723467142
aF2.0672317248320167
aF0
aF0
aF-3.5093664951762813
aF2.2545889238397763
aF-0.13607747634357065
aF-2.7263050765709962
aF0
aF2.8623825529145668
aF0
aF-0.11344564343590832
aF0
aF2.6029472632793347
aF-2.8624971444735929
aF0
aF-12.0947952805346
aF-1.4758246886979778
aF4.4082799799570465
aF-8.0792205733602227
aF3.6709405934031758
aF0
aF-5.2757953775646165
aF2.3244897748457496
aF-0.26986312150661729
aF-2.8200982676339144
aF-36.869948708227504
aF-3.8507347495152393
aF-3.7081828500866814
aF3.7081828500866814
aF0
aF-5.0924488831227608
aF-0.12375888374825436
aF2.7267061470275888
aF-2.7267061470275888
aF-2.9839641970413218
aF0.53542905954975073
aF-4.5001251145165115
aF-1.4758246886979778
aF0
aF-2.3749100608172617
aF-2.4264762623790426
aF0
aF-1.1184136160953659
aF0
aF-1.2186812302432553
aF0
aF-2.6092497990257768
aF0
aF-1.0324699468257519
aF-2.5112740160584002
aF-3.6950048207986881
aF0
aF-2.237973147781001
aF2.1107765172619644
aF0
aF-2.3370948463386338
aF-2.4264762623790301
aF0
aF3.5437439628841396
aF-0.13579099744600415
aF-2.8487461573904524
aF0
aF-2.4190278110423442
aF0
aF-1.909095373375904
aF0.70702991919143687
aF-0.70702991919143687
aF-2.1480187739454575
aF-2.4264762623790301
aF-2.3749100608172617
aF0.96400149030760884
aF-1.1573747461642594
aF-1.4109085705096527
aF-2.4397115874465571
aF1.2960305325859143
aF-3.7087558078818161
aF1.2186812302432553
aF0
aF-3.7311011618919121
aF2.8623825529145668
aF0
aF0
aF0
aF-3.0127839741364077
aF1.3326998314742982
aF-2.4895016198434261
aF0
aF0
aF0
aF-4.605434757261551
aF2.3101658299674743
aF0
aF-1.2960305325859143
aF-1.4111950494072263
aF-2.8624971444735929
aF5.4408072225622934
aF-2.8378599592829588
aF-2.6029472632793347
aF-2.6023743054841999
aF-2.6023743054841999
aF-2.7267061470275888
aF0
aF0
aF-2.9839641970413218
aF-5.008109495679502
aF-1.3321268736791636
aF-1.2186812302432553
aF3.7081828500866814
aF-1.2960305325859143
aF-4.6088725040323331
aF-1.5647477385022752
aF-2.5909151495815848
aF3.5259822712350819
aF-1.789920151988688
aF-4.0855901497393621
aF0
aF1.9749282240364394
aF-1.9749282240364394
aF0
a.