(lp1
F22.976276716657239
aF25
aF23
aF24.971703565920432
aF20
aF24
aF24.971703565920432
aF25
aF23
aF25
aF23.975245647063872
aF25.066833378318851
aF23.999999999915502
aF24.067965219205075
aF23.071182642541231
aF24.082508426885049
aF25.019268612175793
aF24.115530562049699
aF24
aF23.972835423283616
aF23.000002653508815
aF24.020400518967836
aF24.999994692732393
aF24.000005307095091
aF24.000005307095091
aF23.021532326902161
aF24.020652651340662
aF24.176318828948123
aF23
aF23
aF22.688573054719594
aF21.023746992646238
aF24
aF22.122363555208914
aF22.185327939443059
aF23.05168113618117
aF25.494025827414497
aF22.455534868261267
aF25.740667904457275
aF22.360680649296967
aF22.815905739684712
aF22.822523167190923
aF22.185328528113484
aF23.334533304057203
aF24.082454921620922
aF21.920307041516537
aF22.070741061267682
aF22.798348916821478
aF21.838439243985441
aF24.176521824733683
aF22.577306370360617
aF23.426360217660253
aF21.585670546528675
aF22.070741061267682
aF21.581031633837021
aF21.385335000554555
aF23.595954025041209
aF26.190521955909453
aF23.557347762714777
aF25.077840626017817
aF24.591183348485593
aF24.511784536589907
aF23.083613294643605
aF24.999266133861127
aF24.038097317744299
aF24.804261777462173
aF23.299597947617706
aF23.393762516164379
aF23.083613552571062
aF22.835794879121917
aF23.407687289018853
aF23.076574977574666
aF23.409191478900325
aF21.585669660232348
aF23.533935076553703
aF23.141708505923951
aF24.204550578027266
aF23.399999869447917
aF23.582237991040486
aF23.759100730634437
aF24.571376463136644
aF24.163096112244411
aF23.897751454777485
aF24.081508213071164
aF22.976273242126034
aF24.999999999831342
aF26.000062444311354
aF23.251428398232665
aF31.568206770632393
aF23.768490312069694
aF24.172636978911875
aF22.778985989733215
aF22.199999382054905
aF4.8992101670668013
aF26.072500333490741
aF25
aF14.811527493548507
aF22.662711040071045
aF23.428940242890768
aF25.043963068236803
aF19.402788817485643
aF24.115534656248045
aF23.769674019699323
aF28.045193618659006
aF24.227756242052862
aF24.327832848098573
aF25.246631501212889
aF25.306908983190976
aF25.406276104338914
aF24.646892993171551
aF23.978620849314634
aF23.342235274147111
aF22.734121987984569
aF23.768489946299496
aF25.854298072646198
aF23.124524313768525
aF23.380434011443629
aF25.043960201137228
aF25.55284992405376
aF24.687423916720441
aF24.999999999831342
aF25.01962111253183
aF25.973181580565264
aF26.385596853869114
aF24.591413833692144
aF24.163096112244411
aF27.157755088508722
aF27.152901015122875
aF25.031581186202661
aF17.256937746098838
aF31.77079885134723
aF25.168432865899579
aF26.916338958380951
aF25.174439755167505
aF27.999996326606002
aF26.074296149456071
aF27.513471196234647
aF25.957093824185311
aF26.244438720113159
aF33.129410025445999
aF25.22371472444172
aF25.779741875907263
aF34.325300832305317
aF25.046792419159274
aF25.544816699386757
aF23.799635628450176
aF27.017557554600817
aF27.017557554600817
aF24.974210045789171
aF27.064572317156767
aF22.000044078312822
aF17.428225092307066
aF36.162867412011728
aF24.748736994910502
aF24.70966796929406
aF24.04163009818452
aF23.769002595057081
aF24.69748066881747
aF25.342590837961804
aF24.001826065377934
aF24.165919771074808
aF10.428947701008633
aF25.967561324618607
aF25.171814273700654
aF23.121115913848094
aF23.184366773940301
aF23.529348265439985
aF24.496094257156912
aF24.465887782445975
aF26.436447862598108
aF25.314420899040982
aF28.000003673016209
aF27.017557554600817
aF25.999999999824595
aF24.982189555327448
aF13.3833075835252
aF23.442505771955638
aF31.487042962073673
aF25.538196855179898
aF24.807141767339921
aF26.220515298828673
aF24.681894076918212
aF25.811642326260312
aF25.466240880958537
aF25.169036792099053
aF24.596747752195686
aF23.116662419412883
aF24.210660654560421
aF25
aF24.019993829055927
aF24.071945524890928
aF23.387873372729032
aF24.328783281532079
aF24.253571213904976
aF24.993901450553683
aF25.86129859524533
aF22.022715545442985
aF29.887222874464605
aF15.927920552359216
aF34.415615858815684
aF23.980399523811872
aF23.742708054707478
aF24.327832848098573
aF28.679096582834145
aF25.266630632125956
aF26.166924733037611
aF23.914002977154482
aF19.760436970041376
aF29.684856951511136
aF23.2358114409368
aF24.804263125733019
aF23.179395531473322
aF21.828206498379938
aF22.798348916821478
aF23.370961634991904
aF21.832024097991312
aF24.066058711542944
aF23.41018870397177
aF17.616046614422878
aF29.998691042631052
aF23.325604893384451
aF21.073673974854067
aF23.211792511923605
aF9
aF32
aF26.966313683257784
aF24.97640891979475
aF24.974210045789171
aF25.065031456086203
aF23.999999999838089
aF24.369584447648126
aF22.627416535811442
aF28.693539139411396
aF16.638994589734022
aF30.670696429089627
aF24.637983535731443
aF25.079274286147974
aF23.02172886620242
aF27.157755088508722
aF24.081508213071164
aF23.582417277304263
aF19.952133676877725
aF31.75550128678724
aF21.562542337154845
aF24.115534656248045
aF24.573534644157093
aF24.97640094226735
aF25.973178447620736
aF24.020399994695818
aF23.999999999838089
aF23.164169347574148
aF21.400000043599814
aF34.297564483831081
aF23.310418878689866
aF21.806081827331923
aF22.801589984526373
aF24.697479986891587
aF24.165920105992207
aF24.667473759474937
aF17.741771411874922
aF23.259358164171712
aF24.156550889110203
aF26.193888921451197
aF23.409191841522393
aF24.302063604061235
aF24.32608935725608
aF23.937944455152063
aF24.804261777462173
aF24.849854471337281
aF23.527114566012614
aF4.3656440462660608
aF26.385605654575848
aF24.257112579685337
aF24.351545648318908
aF26.663991048582407
aF22.117795589637744
aF10.03745864729804
aF22.189333338040761
aF23.482795258007737
aF23.334521388012462
aF23.763375357360641
aF23.525951982861667
aF31.048181687293436
aF23.283411497338548
aF21.785604426008565
aF23.213731388270688
aF24.697768572356861
aF22.822523167190923
aF24.573531788121379
aF23.677839988944047
aF16.207999627185238
aF26.03046755904154
aF22.783704405176586
aF23.702318345079576
aF23.255109181839462
aF25.018746187695104
aF24
aF25
aF25
aF25
aF23.706310705869701
aF23.255099925252306
aF20.299906901030543
aF26.925782103651969
aF23.323035976461448
aF25.495061193205846
aF25.051813173075239
aF24.172238520752671
aF24.591412474393302
aF17.871683979124818
aF24.669156321004671
aF24.999999999831342
aF23.891880828538824
aF25.019620750937687
aF25.000003673036446
aF24.974213058235829
aF25.999999999824595
aF25.066836348372494
aF23.972831625411281
aF24.400879178388973
aF23.310418878689866
aF28.021239907700195
aF23.70231998805837
aF25.494920286761314
aF24.573534644157093
aF25.065123898775674
aF25.275663221385344
aF22.794177521199728
aF24.32878435589793
aF30.471501702603366
aF34.459420353170103
aF0.70710666564709435
aF44.54772756137023
aF23.978612658475939
aF24.041630329263405
a.