(lp0
F-0.045423
aF0.0
aF-0.047583
aF0.047583
aF-0.049958
aF0.047583
aF-0.047583
aF0.0
aF0.0
aF0.0
aF-0.0021599999999999397
aF0.047579999999999956
aF-0.047579999999999956
aF-0.0023800000000000487
aF-0.04498999999999986
aF-0.043077000000000004
aF0.0
aF-0.047583
aF0.047583
aF-0.047583
aF-0.047579999999999956
aF0.047579999999999956
aF0.0
aF0.0
aF-0.09494999999999987
aF-0.002160000000000002
aF0.049529
aF-0.094952
aF0.0
aF0.047583
aF-0.3774899999999999
aF0.045423
aF-0.099669
aF-0.04971099999999999
aF-0.046945
aF-0.006992999999999999
aF0.0
aF0.023752999999999913
aF-0.08490099999999995
aF0.06807599999999997
aF-0.06807599999999997
aF-0.02325100000000002
aF-0.046940000000000204
aF-0.06655999999999995
aF0.06655999999999995
aF0.0
aF0.0
aF-0.04647800000000002
aF0.0
aF0.0
aF-0.0047399999999999665
aF0.0
aF0.0
aF-0.012344999999999995
aF0.05992900000000001
aF0.0
aF-0.0898699999999999
aF0.049510000000000165
aF-0.02574999999999994
aF-0.019519999999999982
aF0.06187000000000009
aF-0.10638999999999998
aF0.0
aF-0.01316000000000006
aF0.0
aF0.0
aF-0.0022199999999998887
aF0.0
aF-0.01442199999999999
aF-0.03079599999999999
aF0.05837500000000001
aF-0.07469000000000003
aF0.047111000000000014
aF-0.04759000000000002
aF0.0
aF-0.10244000000000009
aF0.0
aF0.0
aF-0.031240000000000046
aF0.0
aF-0.024150000000000116
aF-0.0212699999999999
aF-0.4998499999999999
aF0.0
aF0.04543000000000008
aF0.0
aF-0.04759000000000002
aF-0.08155000000000001
aF0.018020000000000147
aF-0.045540000000000136
aF0.04035999999999973
aF-0.0288400000000002
aF0.0
aF-0.347422
aF-0.094952
aF0.049958
aF0.036840000000000206
aF-0.06862000000000013
aF0.0
aF0.06511999999999984
aF-0.043849999999999945
aF-0.04451999999999989
aF0.0
aF0.0
aF-0.10844000000000009
aF0.08485999999999994
aF-0.045520000000000005
aF0.0
aF0.004149999999999654
aF-0.032099999999999795
aF-0.03447000000000022
aF0.0
aF-0.056757
aF0.0
aF-0.06185000000000018
aF0.06185000000000018
aF-0.12022000000000022
aF-0.06115000000000004
aF0.0
aF-0.023749999999999938
aF-0.045420000000000016
aF0.0
aF-0.04523999999999995
aF0.020830000000000126
aF-0.042100000000000026
aF0.0
aF-0.006369999999999987
aF-0.04632999999999998
aF-0.006990000000000052
aF-0.04851000000000005
aF-0.05993000000000004
aF-0.09892999999999996
aF0.09892999999999996
aF-0.09966999999999993
aF0.09065999999999996
aF0.0
aF-0.04522000000000004
aF0.0
aF0.04522000000000004
aF-0.09169000000000005
aF0.060899999999999954
aF-0.042577999999999894
aF0.0
aF-0.024630000000000152
aF-0.022619999999999862
aF0.0
aF0.0
aF0.0
aF-0.0021599999999999397
aF0.04759000000000002
aF-0.049960000000000004
aF-0.700971
aF-0.03446900000000008
aF0.03446900000000008
aF-0.03446900000000008
aF-0.03446899999999997
aF0.0
aF0.0890500000000003
aF-0.01631999999999989
aF-0.06986000000000026
aF0.024329999999999963
aF-1.072208
aF-0.04499399999999999
aF-0.004716999999999999
aF-0.04971099999999999
aF-0.056933
aF0.056760000000000144
aF-0.1030899999999999
aF-0.05123000000000033
aF0.05123000000000033
aF-0.04222000000000037
aF-0.04543000000000008
aF0.04543000000000008
aF-0.04759000000000002
aF0.04499999999999993
aF0.0
aF-0.10577700000000001
aF0.036838999999999955
aF0.0
aF0.0
aF0.0
aF-0.04383000000000026
aF-0.018019999999999925
aF-0.024329999999999963
aF-0.04078999999999988
aF0.0
aF0.0
aF-0.047583
aF0.049958
aF0.0026249999999999954
aF-0.052583
aF-0.014429999999999943
aF-0.04646999999999979
aF0.06089999999999973
aF-0.014429999999999943
aF0.0
aF-0.04130999999999996
aF-0.008219999999999894
aF0.0
aF-0.004709999999999992
aF-0.005210000000000159
aF-0.05861000000000005
aF0.0
aF-0.006990000000000052
aF0.04693999999999998
aF0.04432999999999998
aF-0.040669999999999984
aF-0.03212000000000037
aF0.036270000000000024
aF-0.034319999999999684
aF0.0
aF0.04647800000000002
aF-0.04647800000000002
aF-0.04647800000000002
aF-0.01442199999999999
aF0.06090000000000001
aF0.03608000000000011
aF0.0
aF0.0
aF-0.061249999999999805
aF0.039349999999999774
aF-0.002375000000000002
aF-0.047583
aF0.0
aF0.049958
aF0.0
aF-0.001980000000000093
aF0.0
aF0.04543000000000008
aF-0.049960000000000004
aF0.0
aF-0.211094
aF-0.02575800000000006
aF0.07693900000000009
aF-0.14100899999999994
aF0.06406999999999985
aF0.0
aF-0.09207999999999994
aF0.040569999999999995
aF-0.004709999999999992
aF-0.04922000000000004
aF-0.643502
aF-0.06720800000000005
aF-0.06471999999999989
aF0.06471999999999989
aF0.0
aF-0.08888000000000007
aF-0.0021599999999999397
aF0.04759000000000002
aF-0.04759000000000002
aF-0.052079999999999904
aF0.009344999999999937
aF-0.078542
aF-0.02575800000000006
aF0.0
aF-0.04144999999999999
aF-0.04235000000000011
aF0.0
aF-0.019519999999999982
aF0.0
aF-0.0212699999999999
aF0.0
aF-0.045540000000000136
aF0.0
aF-0.018020000000000147
aF-0.043830000000000036
aF-0.06449000000000016
aF0.0
aF-0.039060000000000095
aF0.036840000000000206
aF0.0
aF-0.040790000000000104
aF-0.04234999999999989
aF0.0
aF0.06184999999999996
aF-0.0023699999999999832
aF-0.049719999999999986
aF0.0
aF-0.042220000000000146
aF0.0
aF-0.033320000000000016
aF0.012340000000000018
aF-0.012340000000000018
aF-0.03749000000000002
aF-0.04234999999999989
aF-0.04144999999999999
aF0.01682499999999998
aF-0.02019999999999994
aF-0.024625000000000008
aF-0.04258099999999998
aF0.022619999999999862
aF-0.06472999999999995
aF0.0212699999999999
aF0.0
aF-0.06511999999999984
aF0.049958
aF0.0
aF0.0
aF0.0
aF-0.052583
aF0.02326000000000006
aF-0.04344999999999999
aF0.0
aF0.0
aF0.0
aF-0.0803799999999999
aF0.04031999999999991
aF0.0
aF-0.022619999999999862
aF-0.024630000000000152
aF-0.049960000000000004
aF0.09495999999999993
aF-0.04952999999999985
aF-0.04543000000000008
aF-0.045420000000000016
aF-0.045420000000000016
aF-0.04759000000000002
aF0.0
aF0.0
aF-0.052079999999999904
aF-0.08740800000000004
aF-0.023249999999999993
aF-0.0212699999999999
aF0.06471999999999989
aF-0.022619999999999862
aF-0.08043999999999984
aF-0.027309999999999945
aF-0.04522000000000004
aF0.06153999999999993
aF-0.031239999999999934
aF-0.07130700000000001
aF0.0
aF0.03446900000000008
aF-0.03446900000000008
aF0.0
aF-0.004149999999999654
aF-0.062420000000000364
aF0.0
aF-0.13649499999999998
aF0.0
aF0.0
aF-0.0023800000000000487
aF0.0
aF0.0
aF0.018015999999999976
aF-0.09264299999999998
aF0.047111000000000014
aF-0.06655999999999995
aF0.0
aF-0.03447000000000022
aF-0.014929999999999888
aF0.0
aF0.014929999999999888
aF-0.05675000000000008
aF0.045520000000000005
aF-0.045520000000000005
aF-0.03432000000000013
aF0.0
aF0.0
aF0.021274000000000015
aF-0.02990999999999966
aF-0.006610000000000227
aF-0.09431000000000012
aF-0.04385099999999997
aF0.0
aF0.0
aF-0.047579999999999956
aF0.0
aF0.0
aF-0.027515999999999985
aF0.017901
aF0.0
aF-0.17521999999999993
aF0.0
aF-0.10307999999999984
aF0.0
aF-0.05675000000000008
aF-0.012350000000000083
aF0.03446899999999997
aF-0.06656799999999996
aF-0.036514000000000046
aF-0.030299999999999994
aF-0.014920000000000044
aF0.04522000000000004
aF0.0
aF0.0
aF0.0212699999999999
aF-0.06471999999999989
aF0.0
aF0.0
aF-0.09646999999999983
aF-0.2690900000000003
aF0.0
aF-0.02375999999999978
aF-0.04258099999999998
aF-0.013698000000000099
aF0.013698000000000099
aF-0.04952999999999985
aF0.0
aF0.0
aF0.021274000000000015
aF-0.06512600000000002
aF0.0
aF-0.10429000000000022
aF-0.02990999999999966
aF0.0
aF-0.5135099999999999
aF-0.0042999999999999705
aF-0.09326999999999996
aF-0.06152999999999986
aF0.0
aF-0.05778700000000003
aF0.036514000000000046
aF-0.0943099999999999
aF0.0
aF-0.04759000000000002
aF0.020830000000000126
aF-0.020830000000000126
aF-0.08595000000000019
aF-0.10756399999999999
aF-0.07426100000000002
aF0.006607999999999947
aF-0.049960000000000004
aF-0.04498999999999986
aF0.0
aF-0.014767000000000086
aF-0.06407099999999993
aF0.02262000000000003
aF-0.04385000000000017
aF-0.0212699999999999
aF0.0
aF-0.04432999999999998
aF-0.13552000000000008
aF0.047579999999999956
aF-0.06656799999999996
aF-0.021949999999999914
aF-0.023749999999999938
aF0.025759000000000087
aF-0.011230000000000073
aF0.04455000000000009
aF-0.0900700000000001
aF0.06671000000000005
aF-0.032250000000000334
aF-0.03445999999999971
aF-0.061848000000000014
aF0.04553299999999999
aF-0.08938399999999996
aF-0.04498999999999986
aF0.0
aF0.04498999999999986
aF-0.010821999999999998
aF-0.026659999999999906
aF-0.013698000000000099
aF-0.047370000000000134
aF0.047370000000000134
aF-0.04308000000000001
aF-0.06115000000000004
aF-0.0212699999999999
aF-0.04385000000000017
aF-0.329326
aF-0.016529999999999934
aF-0.018020000000000147
aF0.045540000000000136
aF0.0
aF-0.06185000000000018
aF0.043830000000000036
aF-0.039449999999999985
aF0.039449999999999985
aF-0.06610999999999967
aF-0.047583
aF0.0
aF-0.002375000000000002
aF0.026659999999999684
aF0.0
aF-0.026659999999999684
aF0.0
aF-0.014929999999999888
aF-0.06185000000000018
aF0.0
aF-0.01969999999999983
aF-0.06185000000000018
aF-0.06483999999999979
aF0.0381800000000001
aF-0.0288400000000002
aF-0.002375000000000002
aF-0.06193599999999999
aF0.034054999999999946
aF-0.029905999999999988
aF-0.052079999999999904
aF-0.09301000000000004
aF0.045420000000000016
aF0.020830000000000126
aF-0.042100000000000026
aF0.019520000000000204
aF-0.06765300000000007
aF-0.036513999999999935
aF0.0
aF5.85156
aF-0.046940000000000204
aF0.0
aF0.02262000000000003
aF-0.12659200000000004
aF0.06186799999999998
aF-0.024150000000000116
aF-0.042100000000000026
aF0.020830000000000126
aF-0.04486000000000012
aF0.05123000000000011
aF0.006999999999999895
aF-0.06861300000000004
aF-0.030172000000000088
aF0.0022220000000000573
aF0.0
aF0.009170000000000122
aF-0.009170000000000122
aF-0.008369999999999989
aF0.034319999999999684
aF-0.06657000000000002
aF0.03447000000000022
aF-0.047584000000000015
aF0.04647800000000002
aF-0.04647800000000002
aF-0.04522000000000004
aF-0.04646999999999979
aF0.0
aF0.08506900000000006
aF-0.00812999999999997
aF-0.2023830000000001
aF-0.011230000000000073
aF0.0
aF-0.045520000000000005
aF-0.10309000000000035
aF0.0
aF-0.03445999999999971
aF0.012344999999999995
aF-0.012344999999999995
aF-0.04521799999999998
aF-0.037719999999999754
aF-0.04383000000000026
aF-0.014920000000000044
aF0.06406999999999985
aF-0.022619999999999862
aF-0.024630000000000152
aF-0.04648000000000008
aF-0.047579999999999956
aF-0.01754000000000011
aF-0.06657000000000002
aF-0.06655999999999995
aF0.03210000000000024
aF-0.034133000000000024
aF-0.04521799999999998
aF-0.016315000000000024
aF0.0
aF0.01631999999999989
aF-0.07468999999999992
aF-0.2507300000000001
aF-0.13018699999999994
aF0.0
aF0.026249999999999885
aF-0.021949999999999914
aF-0.023749999999999938
aF0.0
aF-0.042220000000000146
aF0.0
aF-0.037959999999999994
aF0.04344999999999999
aF0.019520000000000204
aF-0.04385000000000017
aF-0.02433099999999999
aF-0.019519999999999982
aF0.0
aF-0.14063999999999988
aF6.2356
aF0.0
aF0.0
aF-0.04031800000000002
aF0.0
aF-0.043830000000000036
aF0.043830000000000036
aF-0.043830000000000036
aF-0.035250000000000004
aF-0.04632999999999998
aF-0.04222999999999999
aF-0.013698000000000099
aF-0.02575800000000006
aF-0.06406999999999985
aF-0.018019999999999925
aF-0.06511999999999984
aF0.0
aF-0.004716999999999999
aF-0.04499399999999999
aF-0.002375000000000002
aF-0.0022199999999998887
aF-0.032099999999999795
aF0.004149999999999654
aF0.0
aF-0.04632999999999998
aF-0.10323000000000015
aF-0.04648000000000008
aF0.0
aF-0.05771000000000015
aF-0.06599000000000022
aF0.0047400000000004106
aF-0.0047400000000004106
aF-0.094314
aF-0.046325000000000005
aF0.0
aF-0.08491000000000026
aF-0.032246999999999915
aF0.0
aF-0.03446900000000008
aF-0.5525199999999999
aF0.045420000000000016
aF-0.045420000000000016
aF-0.07884000000000002
aF0.022619999999999862
aF-0.06471999999999989
aF-0.04210400000000003
aF0.0
aF-0.10352500000000003
aF-0.047579999999999956
aF0.0
aF0.0
aF-0.01769799999999999
aF0.0
aF-0.06472400000000006
aF0.0
aF-0.045420000000000016
aF0.0
aF-0.04031999999999991
aF-0.06162000000000023
aF0.019520000000000204
aF0.0
aF-0.040358000000000005
aF-0.06765300000000007
aF0.04952999999999985
aF-0.04952999999999985
aF-0.0047199999999998354
aF0.023752999999999913
aF-0.041450999999999905
aF-0.043450000000000044
aF0.0
aF-0.042100000000000026
aF-0.04031999999999991
aF-0.03251000000000004
aF-0.045520000000000005
aF0.0091699999999999
aF-0.02946900000000008
aF0.0
aF-0.036513999999999935
aF-0.08485000000000031
aF-0.011239999999999917
aF0.0
aF0.0
aF-0.043852
aF-0.004630000000000023
aF0.0212699999999999
aF-0.016529999999999934
aF-0.018020000000000147
aF0.0
aF-0.3682699999999999
aF0.04499999999999993
aF-0.09495999999999993
aF-0.08241999999999994
aF0.0
aF-0.04385000000000017
aF-0.04345099999999996
aF-0.024625000000000008
aF-0.01682499999999998
aF6.13429
aF-0.049960000000000004
aF0.0
aF0.020830000000000015
aF-0.04210400000000003
aF-0.024150000000000005
aF0.06184999999999996
aF-0.08617999999999992
aF0.0
aF-0.04432999999999998
aF0.013369999999999882
aF0.0
aF-0.03446900000000008
aF0.0
aF-0.03446899999999997
aF-0.04759000000000002
aF-0.04646999999999979
aF-0.014429999999999943
aF0.0
aF0.011235999999999996
aF-0.047583000000000014
aF0.0
aF-0.024329999999999963
aF-0.019520000000000204
aF-0.04130999999999996
aF-0.045420000000000016
aF0.04994999999999994
aF-1.148163
aF-0.03177400000000008
aF0.0
aF0.0
aF0.0
aF-0.04522000000000004
aF0.0
aF0.0
aF-0.03634700000000002
aF-0.06471999999999989
aF-0.040790000000000104
aF-0.06115000000000004
aF0.003929999999999989
aF0.004290000000000127
aF-0.047370000000000134
aF-0.04344999999999999
aF-0.04078999999999988
aF0.0212699999999999
aF0.0
aF0.0
aF-0.10428999999999977
aF0.0
aF-0.047583
aF-0.049958
aF0.0
aF0.0
aF0.0
aF-0.01368999999999998
aF-0.016310000000000047
aF-0.045540000000000136
aF0.0
aF-0.06471999999999989
aF-0.019519999999999982
aF0.04145000000000021
aF-0.024620000000000086
aF-0.04258000000000006
aF-0.047583
aF-0.101307
aF0.053938
aF0.0
aF-0.027510000000000367
aF-0.06153999999999993
aF0.0
aF-0.020830000000000126
aF-0.022619999999999862
aF-0.011230000000000073
aF0.0
aF-0.05388999999999999
aF0.0
aF0.0022199999999998887
aF0.0
aF-0.056757
aF0.0
aF-0.091696
aF-0.06185000000000018
aF0.0
aF0.0
aF0.015619999999999967
aF0.0
aF-0.049509000000000025
aF0.014419999999999877
aF-0.07213000000000003
aF0.05771000000000015
aF0.0
aF-0.06610999999999967
aF0.0
aF0.009172999999999987
aF-0.009172999999999987
aF0.0
aF0.0
aF0.04522000000000004
aF0.0
aF0.10068900000000003
aF0.0
aF0.0
aF-0.06152999999999986
aF0.045219999999999816
aF-0.10292999999999997
aF0.0
aF0.03652000000000033
aF-0.036840000000000206
aF-0.287891
aF-0.009172999999999987
aF-0.047584000000000015
aF-0.045420000000000016
aF-0.08313999999999977
aF0.0
aF0.0
aF0.024329999999999963
aF-0.10856999999999983
aF0.047109999999999985
aF-0.016310000000000047
aF0.0
aF0.039449999999999985
aF-0.02574999999999994
aF0.0
aF-0.002375000000000002
aF-0.047583
aF0.049958
aF-0.06657000000000002
aF0.0
aF-0.03652000000000033
aF0.010270000000000001
aF-0.021500000000000075
aF-0.04648000000000008
aF-0.314176
aF0.040359000000000034
aF-0.06611700000000009
aF0.04553000000000029
aF-0.04553000000000029
aF-0.043849999999999945
aF0.046324000000000004
aF-0.093269
aF0.004716999999999999
aF-0.04385000000000017
aF-0.042100000000000026
aF-0.022619999999999862
aF0.0
aF-0.037959999999999994
aF0.006999999999999895
aF-1.064846
aF-0.03209899999999999
aF-0.06598400000000004
aF0.018019999999999925
aF0.027510000000000367
aF-0.04553000000000029
aF-0.056758
aF0.0
aF-0.138263
aF-0.30091999999999963
aF-0.03447000000000022
aF0.0022199999999998887
aF0.0
aF-0.034321000000000046
aF0.03209899999999999
aF0.0
aF-0.09495000000000009
aF0.004290000000000127
aF-0.06115000000000004
aF0.04344999999999999
aF-0.04344999999999999
aF0.0
aF0.0
aF-0.06472499999999998
aF-0.04736999999999991
aF0.0023800000000000487
aF-0.0045399999999999885
aF-0.010821999999999998
aF0.0
aF0.0
aF0.006990000000000052
aF-0.058230000000000004
aF0.0
aF-0.06422999999999979
aF-0.006610000000000227
aF-0.09431000000000012
aF-0.04144999999999999
aF-0.025756
aF0.04144999999999999
aF6.23776
aF0.0
aF0.0
aF-0.12872099999999997
aF-0.0066070000000000295
aF-0.029469999999999996
aF0.08905000000000007
aF-0.04522000000000004
aF-0.08617999999999992
aF0.05015000000000014
aF0.006369999999999987
aF-0.04693999999999998
aF0.0022220000000000573
aF-0.0022220000000000573
aF-0.036838999999999955
aF0.05837000000000003
aF-0.07468999999999992
aF0.0
aF-0.091696
aF0.06090000000000001
aF0.0
aF-0.10801000000000016
aF0.0
aF-0.06862000000000013
aF-0.012189999999999923
aF0.006369999999999987
aF0.040569999999999995
aF-0.03177400000000008
aF-0.029469999999999996
aF-0.08952999999999989
aF-0.024329999999999963
aF0.0
aF-0.019519999999999982
aF-0.011235999999999996
aF-0.03634700000000002
aF0.047583000000000014
aF0.06862000000000013
aF-0.09809000000000001
aF0.029469999999999885
aF0.0
aF0.024329999999999963
aF-0.019519999999999982
aF-0.06406999999999985
aF0.022619999999999862
aF-0.022619999999999862
aF-0.0587500000000003
aF-0.018019999999999925
aF0.018019999999999925
aF0.0
aF-0.047583000000000014
aF0.0
aF0.0
aF-0.039449999999999985
aF0.039449999999999985
aF-0.008219999999999894
aF0.0042999999999999705
aF-0.05123999999999995
aF-0.03209899999999999
aF0.034321000000000046
aF-0.034321000000000046
aF-0.056760000000000144
aF0.0
aF-0.04646999999999979
aF0.016315000000000024
aF-0.016315000000000024
aF-0.03079599999999999
aF-0.06720999999999977
aF0.02574999999999994
aF-0.14037000000000033
aF0.0
aF-0.04759000000000002
aF-0.04736999999999991
aF0.0
aF-0.06893800000000005
aF-0.02795000000000003
aF-0.04522000000000004
aF0.04522000000000004
aF-0.04522000000000004
aF0.08904899999999999
aF-0.08904899999999999
aF0.01442199999999999
aF-0.03933000000000009
aF-0.045520000000000005
aF0.010270000000000001
aF-0.04091
aF-0.04222999999999999
aF-0.030299999999999994
aF0.0
aF0.02883800000000003
aF-0.06765300000000007
aF0.0
aF0.0
aF-0.04736999999999991
aF0.0
aF-0.02262000000000003
aF0.0024210000000000065
aF-0.024150000000000116
aF-0.042100000000000026
aF0.04344999999999999
aF0.00766
aF-0.13443000000000005
aF0.004529999999999923
aF-0.03446899999999997
aF0.03446899999999997
aF0.0
aF-0.04632999999999976
aF0.0
aF0.0
aF-0.06625400000000004
aF-0.019701999999999997
aF0.019701999999999997
aF0.0
aF-0.06720999999999977
aF0.0
aF0.005820000000000158
aF-0.09010000000000007
aF0.004529999999999923
aF0.03446900000000008
aF-0.066716
aF-0.034321000000000046
aF-0.046940000000000204
aF0.035250000000000004
aF-0.056760000000000144
aF0.0
aF0.0
aF-0.02763099999999996
aF0.022619999999999862
aF-0.06407999999999969
aF0.06407999999999969
aF0.0
aF-0.08794000000000013
aF0.052080000000000126
aF-0.320242
aF-0.036514000000000046
aF-0.029905999999999988
aF-0.027309999999999945
aF0.027309999999999945
aF-0.01631999999999989
aF0.047583000000000014
aF-0.14531
aF-0.04971099999999999
aF-0.06657000000000002
aF-0.06599000000000022
aF0.0
aF0.044869999999999965
aF-0.044869999999999965
aF-0.013360000000000039
aF-0.14189700000000005
aF0.0
aF0.0
aF-0.043079999999999785
aF-0.004290000000000127
aF-0.0047199999999998354
aF0.0672069999999999
aF-0.0672069999999999
aF-0.043450000000000044
aF0.0212699999999999
aF0.0
aF-0.10617999999999972
aF-0.1322700000000001
aF-0.047579999999999956
aF0.0
aF0.0
aF-0.07532899999999998
aF0.0
aF-0.05549999999999988
aF-0.036350000000000104
aF-0.04552000000000023
aF0.019701999999999997
aF-0.06523399999999996
aF0.017901
aF0.0
aF-0.04145999999999983
aF0.02574999999999994
aF-0.040569999999999995
aF-0.1425400000000001
aF0.0
aF-0.066114
aF-0.02883800000000003
aF0.0
aF-0.27829999999999977
aF-0.06657000000000002
aF0.034319999999999684
a.