(lp1
F-0
aF-0
aF-0.047583
aF-0
aF-0.049958000000000002
aF0.047583
aF-0
aF-0
aF-0
aF-0
aF3.0940099999999999
aF3.1415899999999999
aF3.0940099999999999
aF3.0916299999999999
aF3.04664
aF0.047583
aF0.047583
aF-0
aF0.047583
aF-0
aF3.0940099999999999
aF3.1415899999999999
aF3.1415899999999999
aF3.1415899999999999
aF3.04664
aF0.045422999999999998
aF0.094951999999999995
aF-0
aF-0
aF0.047583
aF-2.39066
aF-0
aF-0.099668999999999994
aF-0.099668999999999994
aF-0.141897
aF-0.14888999999999999
aF-1.3825700000000001
aF0.54854899999999995
aF0.463648
aF0.53172399999999997
aF0.463648
aF0.463648
aF2.9996999999999998
aF2.2896299999999998
aF2.3561899999999998
aF2.3561899999999998
aF-0.244979
aF-0.29145700000000002
aF-0.29145700000000002
aF2.2896299999999998
aF2.2848899999999999
aF2.2848899999999999
aF-0.244979
aF-0.257324
aF-0.19739499999999999
aF-2.5269300000000001
aF-2.6168
aF-2.5672899999999998
aF-2.5930399999999998
aF1.12842
aF1.1902900000000001
aF1.0839000000000001
aF-1.2793399999999999
aF-1.2925
aF-1.2925
aF2.32395
aF2.3217300000000001
aF2.3217300000000001
aF-0.30587900000000001
aF-0.336675
aF-0.27829999999999999
aF-0.35299000000000003
aF-0.30587900000000001
aF-2.9441999999999999
aF-2.9441999999999999
aF-3.04664
aF0.65284699999999996
aF0.64350099999999999
aF0.64350099999999999
aF-1.98902
aF-2.0131700000000001
aF-2.03444
aF1.47584
aF1.47584
aF1.5708
aF1.5708
aF1.52321
aF-1.2341200000000001
aF-1.1722699999999999
aF-1.2178100000000001
aF2.5672899999999998
aF2.4980899999999999
aF2.4980899999999999
aF0.094951999999999995
aF-0
aF0.049958000000000002
aF-2.39066
aF-2.4592800000000001
aF-2.4592800000000001
aF1.1722699999999999
aF1.12842
aF1.0839000000000001
aF-1.3134699999999999
aF-1.3134699999999999
aF-1.42191
aF-1.3370500000000001
aF-1.3825700000000001
aF-1.3825700000000001
aF2.4227599999999998
aF2.39066
aF2.3561899999999998
aF-0.188222
aF-0.244979
aF-0.244979
aF-2.8049200000000001
aF-2.7430699999999999
aF-2.8632900000000001
aF1.046
aF1.046
aF1.0222500000000001
aF-1.61622
aF-1.61622
aF-1.6614599999999999
aF2.0552700000000002
aF2.0131700000000001
aF2.0131700000000001
aF1.4289000000000001
aF1.3825700000000001
aF1.42191
aF1.3734
aF1.3134699999999999
aF-1.52084
aF-1.42191
aF-1.5708
aF-1.48014
aF-1.48014
aF1.86225
aF1.86225
aF1.90747
aF1.8157799999999999
aF1.8766799999999999
aF-1.0390699999999999
aF-1.0390699999999999
aF-1.0637000000000001
aF-1.08632
aF-1.08632
aF1.5253699999999999
aF1.5253699999999999
aF1.52321
aF1.5708
aF1.52084
aF-0.75092899999999996
aF-0.78539800000000004
aF-0.75092899999999996
aF-0.78539800000000004
aF-0.81986700000000001
aF2.7610899999999998
aF2.8501400000000001
aF2.7886000000000002
aF2.7187399999999999
aF2.7430699999999999
aF-0.049958000000000002
aF-0.094951999999999995
aF-0.099668999999999994
aF-0.099668999999999994
aF-0.15660199999999999
aF-2.8966099999999999
aF-2.9996999999999998
aF-3.0509300000000001
aF-2.9996999999999998
aF-3.0419200000000002
aF1.5253699999999999
aF1.5708
aF1.52321
aF1.52084
aF1.52084
aF-0.85670599999999997
aF-0.81986700000000001
aF-0.81986700000000001
aF-0.81986700000000001
aF-0.81986700000000001
aF2.7610899999999998
aF2.7430699999999999
aF2.7187399999999999
aF2.6779500000000001
aF2.6779500000000001
aF0.047583
aF-0
aF0.049958000000000002
aF0.052582999999999998
aF-0
aF-2.8501400000000001
aF-2.8966099999999999
aF-2.8357100000000002
aF-2.8501400000000001
aF-2.8501400000000001
aF1.4840599999999999
aF1.47584
aF1.47584
aF1.47113
aF1.4659199999999999
aF-1.42191
aF-1.42191
aF-1.4289000000000001
aF-1.4289000000000001
aF-1.3909400000000001
aF2.4186100000000001
aF2.3864899999999998
aF2.4227599999999998
aF2.3884400000000001
aF2.3884400000000001
aF-0.244979
aF-0.29145700000000002
aF-0.29145700000000002
aF-0.30587900000000001
aF-0.244979
aF2.48875
aF2.48875
aF2.48875
aF2.4275000000000002
aF2.46685
aF0.047583
aF-0
aF-0
aF0.049958000000000002
aF0.049958000000000002
aF1.5253699999999999
aF1.5253699999999999
aF1.5708
aF1.52084
aF1.52084
aF-0.99649200000000004
aF-1.0222500000000001
aF-0.94531100000000001
aF-1.08632
aF-1.0222500000000001
aF1.4840599999999999
aF1.43527
aF1.47584
aF1.47113
aF1.42191
aF-0.99649200000000004
aF-1.0637000000000001
aF-1.12842
aF-1.0637000000000001
aF-1.0637000000000001
aF1.5253699999999999
aF1.52321
aF1.5708
aF1.52321
aF1.47113
aF-0.91795000000000004
aF-0.99649200000000004
aF-1.0222500000000001
aF-1.0222500000000001
aF-1.0637000000000001
aF1.14794
aF1.14794
aF1.12842
aF1.12842
aF1.1071500000000001
aF-1.1722699999999999
aF-1.2178100000000001
aF-1.2178100000000001
aF-1.1902900000000001
aF-1.2341200000000001
aF2.32395
aF2.32395
aF2.2848899999999999
aF2.3217300000000001
aF2.2531099999999999
aF1.9936499999999999
aF1.9513
aF1.90747
aF1.96932
aF-1.6207499999999999
aF-1.6704699999999999
aF-1.6704699999999999
aF-1.71269
aF-1.71269
aF1.8157799999999999
aF1.82812
aF1.8157799999999999
aF1.7782899999999999
aF1.73594
aF-0.54854899999999995
aF-0.53172399999999997
aF-0.50709899999999997
aF-0.53172399999999997
aF-0.57430499999999995
aF-2.63449
aF-2.69922
aF-2.6779500000000001
aF-2.6779500000000001
aF-2.7430699999999999
aF-0
aF-0
aF-0
aF-0
aF-0.052582999999999998
aF-2.03444
aF-2.07789
aF-2.07789
aF-2.1193499999999998
aF-2.1193499999999998
aF1.046
aF1.08632
aF1.08632
aF1.0637000000000001
aF1.0390699999999999
aF-1.5708
aF-1.47584
aF-1.5253699999999999
aF-1.5708
aF-1.61622
aF1.5708
aF1.52321
aF1.52321
aF1.52321
aF1.47113
aF-1.0839000000000001
aF-1.1071500000000001
aF-1.12842
aF-1.0637000000000001
aF-1.08632
aF1.9347799999999999
aF1.90747
aF1.86225
aF1.9237899999999999
aF1.89255
aF-0.78539800000000004
aF-0.78539800000000004
aF-0.75092899999999996
aF-0.78539800000000004
aF-0.78539800000000004
a.