(lp1
F-0
aF-0
aF-0.047583
aF-0
aF-0.049958000000000002
aF0.047583
aF-0
aF-0
aF-0
aF-0
aF3.0940099999999999
aF3.1415899999999999
aF3.0940099999999999
aF3.0916299999999999
aF3.04664
aF0.047583
aF0.047583
aF-0
aF0.047583
aF-0
aF3.0940099999999999
aF3.1415899999999999
aF3.1415899999999999
aF3.1415899999999999
aF3.04664
aF0.045422999999999998
aF0.094951999999999995
aF-0
aF-0
aF0.047583
aF-2.39066
aF-0
aF-0.099668999999999994
aF-0.099668999999999994
aF-0.141897
aF-0.14888999999999999
aF-1.3825700000000001
aF0.54854899999999995
aF0.463648
aF0.53172399999999997
aF0.463648
aF0.463648
aF2.9996999999999998
aF2.2896299999999998
aF2.3561899999999998
aF2.3561899999999998
aF-0.244979
aF-0.29145700000000002
aF-0.29145700000000002
aF2.2896299999999998
aF2.2848899999999999
aF2.2848899999999999
aF-0.244979
aF-0.257324
aF-0.19739499999999999
aF-2.5269300000000001
aF-2.6168
aF-2.5672899999999998
aF-2.5930399999999998
aF1.12842
aF1.1902900000000001
aF1.0839000000000001
aF-1.2793399999999999
aF-1.2925
aF-1.2925
aF2.32395
aF2.3217300000000001
aF2.3217300000000001
aF-0.30587900000000001
aF-0.336675
aF-0.27829999999999999
aF-0.35299000000000003
aF-0.30587900000000001
aF-2.9441999999999999
aF-2.9441999999999999
aF-3.04664
aF0.65284699999999996
aF0.64350099999999999
aF0.64350099999999999
aF-1.98902
aF-2.0131700000000001
aF-2.03444
aF1.47584
aF1.47584
aF1.5708
aF1.5708
aF1.52321
aF-1.2341200000000001
aF-1.1722699999999999
aF-1.2178100000000001
aF2.5672899999999998
aF2.4980899999999999
aF2.4980899999999999
aF0.094951999999999995
aF-0
aF0.049958000000000002
aF-2.39066
aF-2.4592800000000001
aF-2.4592800000000001
aF1.1722699999999999
aF1.12842
aF1.0839000000000001
aF-1.3134699999999999
aF-1.3134699999999999
aF-1.42191
aF-1.3370500000000001
aF-1.3825700000000001
aF-1.3825700000000001
aF2.4227599999999998
aF2.39066
aF2.3561899999999998
aF-0.188222
aF-0.244979
aF-0.244979
aF-2.8049200000000001
aF-2.7430699999999999
aF-2.8632900000000001
aF1.046
aF1.046
aF1.0222500000000001
aF-1.61622
aF-1.61622
aF-1.6614599999999999
aF2.0552700000000002
aF2.0131700000000001
aF2.0131700000000001
aF1.4289000000000001
aF1.3825700000000001
aF1.42191
aF1.3734
aF1.3134699999999999
aF-1.52084
aF-1.42191
aF-1.5708
aF-1.48014
aF-1.48014
aF1.86225
aF1.86225
aF1.90747
aF1.8157799999999999
aF1.8766799999999999
aF-1.0390699999999999
aF-1.0390699999999999
aF-1.0637000000000001
aF-1.08632
aF-1.08632
aF1.5253699999999999
aF1.5253699999999999
aF1.52321
aF1.5708
aF1.52084
aF-0.75092899999999996
aF-0.78539800000000004
aF-0.75092899999999996
aF-0.78539800000000004
aF-0.81986700000000001
aF2.7610899999999998
aF2.8501400000000001
aF2.7886000000000002
aF2.7187399999999999
aF2.7430699999999999
aF-0.049958000000000002
aF-0.094951999999999995
aF-0.099668999999999994
aF-0.099668999999999994
aF-0.15660199999999999
aF-2.8966099999999999
aF-2.9996999999999998
aF-3.0509300000000001
aF-2.9996999999999998
aF-3.0419200000000002
aF1.5253699999999999
aF1.5708
aF1.52321
aF1.52084
aF1.52084
aF-0.85670599999999997
aF-0.81986700000000001
aF-0.81986700000000001
aF-0.81986700000000001
aF-0.81986700000000001
aF2.7610899999999998
aF2.7430699999999999
aF2.7187399999999999
aF2.6779500000000001
aF2.6779500000000001
aF0.047583
aF-0
aF0.049958000000000002
aF0.052582999999999998
aF-0
aF-2.8501400000000001
aF-2.8966099999999999
aF-2.8357100000000002
aF-2.8501400000000001
aF-2.8501400000000001
aF1.4840599999999999
aF1.47584
aF1.47584
aF1.47113
aF1.4659199999999999
aF-1.42191
aF-1.42191
aF-1.4289000000000001
aF-1.4289000000000001
aF-1.3909400000000001
aF2.4186100000000001
aF2.3864899999999998
aF2.4227599999999998
aF2.3884400000000001
aF2.3884400000000001
aF-0.244979
aF-0.29145700000000002
aF-0.29145700000000002
aF-0.30587900000000001
aF-0.244979
aF2.48875
aF2.48875
aF2.48875
aF2.4275000000000002
aF2.46685
aF0.047583
aF-0
aF-0
aF0.049958000000000002
aF0.049958000000000002
aF1.5253699999999999
aF1.5253699999999999
aF1.5708
aF1.52084
aF1.52084
aF-0.99649200000000004
aF-1.0222500000000001
aF-0.94531100000000001
aF-1.08632
aF-1.0222500000000001
aF1.4840599999999999
aF1.43527
aF1.47584
aF1.47113
aF1.42191
aF-0.99649200000000004
aF-1.0637000000000001
aF-1.12842
aF-1.0637000000000001
aF-1.0637000000000001
aF1.5253699999999999
aF1.52321
aF1.5708
aF1.52321
aF1.47113
aF-0.91795000000000004
aF-0.99649200000000004
aF-1.0222500000000001
aF-1.0222500000000001
aF-1.0637000000000001
aF1.14794
aF1.14794
aF1.12842
aF1.12842
aF1.1071500000000001
aF-1.1722699999999999
aF-1.2178100000000001
aF-1.2178100000000001
aF-1.1902900000000001
aF-1.2341200000000001
aF2.32395
aF2.32395
aF2.2848899999999999
aF2.3217300000000001
aF2.2531099999999999
aF1.9936499999999999
aF1.9513
aF1.90747
aF1.96932
aF-1.6207499999999999
aF-1.6704699999999999
aF-1.6704699999999999
aF-1.71269
aF-1.71269
aF1.8157799999999999
aF1.82812
aF1.8157799999999999
aF1.7782899999999999
aF1.73594
aF-0.54854899999999995
aF-0.53172399999999997
aF-0.50709899999999997
aF-0.53172399999999997
aF-0.57430499999999995
aF-2.63449
aF-2.69922
aF-2.6779500000000001
aF-2.6779500000000001
aF-2.7430699999999999
aF-0
aF-0
aF-0
aF-0
aF-0.052582999999999998
aF-2.03444
aF-2.07789
aF-2.07789
aF-2.1193499999999998
aF-2.1193499999999998
aF1.046
aF1.08632
aF1.08632
aF1.0637000000000001
aF1.0390699999999999
aF-1.5708
aF-1.47584
aF-1.5253699999999999
aF-1.5708
aF-1.61622
aF1.5708
aF1.52321
aF1.52321
aF1.52321
aF1.47113
aF-1.0839000000000001
aF-1.1071500000000001
aF-1.12842
aF-1.0637000000000001
aF-1.08632
aF1.9347799999999999
aF1.90747
aF1.86225
aF1.9237899999999999
aF1.89255
aF-0.78539800000000004
aF-0.78539800000000004
aF-0.75092899999999996
aF-0.78539800000000004
aF-0.78539800000000004
aF2.4186100000000001
aF2.3561899999999998
aF2.3561899999999998
aF-0.44237399999999999
aF-0.44237399999999999
aF-0.44237399999999999
aF-3.0940099999999999
aF-3.0940099999999999
aF-3.0940099999999999
aF0.39852199999999999
aF0.30587900000000001
aF0.35299000000000003
aF-2.3561899999999998
aF-2.3561899999999998
aF-2.39066
aF1.2341200000000001
aF1.2341200000000001
aF1.24905
aF-1.3825700000000001
aF-1.3370500000000001
aF-1.3825700000000001
aF2.2896299999999998
aF2.2896299999999998
aF2.2896299999999998
aF-0.44237399999999999
aF2.2597200000000002
aF2.2531099999999999
aF2.1587999999999998
aF-0.44237399999999999
aF-0.44237399999999999
aF-0.44237399999999999
aF3.0940099999999999
aF3.0940099999999999
aF3.0940099999999999
aF0.35299000000000003
aF0.37089100000000003
aF0.37089100000000003
aF-2.2531099999999999
aF-2.2531099999999999
aF-2.3561899999999998
aF1.3825700000000001
aF1.32582
aF1.3134699999999999
aF-0.78539800000000004
aF-0.851966
aF-0.88848000000000005
aF2.8198400000000001
aF2.8049200000000001
aF2.8501400000000001
aF0.19739599999999999
aF1.14794
aF1.12842
aF1.0637000000000001
aF-1.47584
aF-1.47584
aF-1.5253699999999999
aF2.1193499999999998
aF2.1193499999999998
aF2.0955900000000001
aF-0.57430499999999995
aF-0.58800300000000005
aF-0.57430499999999995
aF3.04664
aF3.04664
aF2.9927000000000001
aF0.463648
aF0.39852199999999999
aF0.39852199999999999
aF-2.2236400000000001
aF-2.2896299999999998
aF-2.2896299999999998
aF1.48014
aF1.47584
aF1.3825700000000001
aF-1.2793399999999999
aF0.90975300000000003
aF0.851966
aF0.88848000000000005
aF-1.52321
aF-1.52321
aF-1.5708
aF2.0552700000000002
aF2.03444
aF1.96932
aF-0.61466299999999996
aF-0.68892399999999998
aF-0.68231600000000003
aF3.0916299999999999
aF3.04664
aF3.04664
aF0.54854899999999995
aF0.48447800000000002
aF0.50709800000000005
aF-2.0131700000000001
aF-2.03444
aF-1.9936499999999999
aF1.7063200000000001
aF1.5708
aF1.6183799999999999
aF-0.851966
aF1.046
aF1.0222500000000001
aF1.0222500000000001
aF-1.3370500000000001
aF-1.2925
aF-1.3825700000000001
aF2.3884400000000001
aF2.3561899999999998
aF2.3217300000000001
aF-0.39852300000000002
aF-0.35299000000000003
aF-0.44237399999999999
aF-3.0916299999999999
aF-3.0916299999999999
aF-3.04664
aF0.61466299999999996
aF0.58800300000000005
aF0.57430499999999995
aF-1.6657500000000001
aF-1.6183799999999999
aF-1.6614599999999999
aF2.03444
aF2.0131700000000001
aF1.96932
aF-0.68231600000000003
aF1.1902900000000001
aF1.1722699999999999
aF1.2178100000000001
aF-1.1722699999999999
aF-1.2341200000000001
aF-1.1902900000000001
aF2.5535899999999998
aF2.5930399999999998
aF2.5269300000000001
aF-0.047583
aF-0.047583
aF-0.049958000000000002
aF-2.5269300000000001
aF-2.5269300000000001
aF-2.5535899999999998
aF1.24905
aF1.2341200000000001
aF1.1722699999999999
aF-1.1525700000000001
aF-1.1722699999999999
aF-1.2341200000000001
aF2.48875
aF2.5269300000000001
aF2.4980899999999999
aF0.047583
aF0.84781700000000004
aF0.88187199999999999
aF0.851966
aF-1.52321
aF-1.61622
aF-1.5708
aF2.0552700000000002
aF2.0131700000000001
aF2.0131700000000001
aF-0.68231600000000003
aF-0.71882999999999997
aF-0.71882999999999997
aF3.04664
aF2.9996999999999998
aF2.9996999999999998
aF0.50709800000000005
aF0.38050600000000001
aF0.44237399999999999
aF-2.0131700000000001
aF-2.0552700000000002
aF-2.03444
aF1.6614599999999999
aF1.71269
aF1.7196899999999999
aF-0.88848000000000005
aF0.81764499999999996
aF0.81986700000000001
aF0.81986700000000001
aF-1.3734
aF-1.3825700000000001
aF-1.3909400000000001
aF2.4227599999999998
aF2.3561899999999998
aF2.39066
aF-0.244979
aF-0.244979
aF-0.29145700000000002
aF-2.8501400000000001
aF-2.8966099999999999
aF-2.8966099999999999
aF1.0303800000000001
aF1.0222500000000001
aF0.81986700000000001
aF-1.3370500000000001
aF-1.3370500000000001
aF-1.3825700000000001
aF2.3561899999999998
aF2.3561899999999998
aF2.3217300000000001
aF-0.244979
aF-0.257324
aF-0.336675
aF-2.7610899999999998
aF-2.8049200000000001
aF-2.8198400000000001
aF1.08632
aF1.0637000000000001
aF1.0390699999999999
aF-1.32582
aF-1.3734
aF-1.3909400000000001
aF2.3561899999999998
aF2.2896299999999998
aF2.3217300000000001
aF-0.29145700000000002
aF-0.336675
aF-0.35299000000000003
aF-2.8049200000000001
aF-2.7886000000000002
aF-2.8632900000000001
aF1.08632
aF0.95613300000000001
aF0.95613300000000001
aF-1.3370500000000001
aF1.046
aF1.0222500000000001
aF1.0222500000000001
aF-1.71269
aF-1.71269
aF-1.75065
aF2.07789
aF2.0131700000000001
aF1.96932
aF-0.42285400000000001
aF-0.44237399999999999
aF-0.44237399999999999
aF-3.0940099999999999
aF3.1415899999999999
aF3.1415899999999999
aF0.52479600000000004
aF0.48447800000000002
aF0.48447800000000002
aF-1.9513
aF-1.90747
aF-1.9513
aF1.75902
aF1.71269
aF1.6704600000000001
aF-0.99649200000000004
aF-1.0222500000000001
aF-1.08632
aF2.7430699999999999
aF2.6779500000000001
aF2.6779500000000001
aF0.094951999999999995
aF0.049958000000000002
aF0.047583
aF-2.39066
aF-2.4227599999999998
aF-2.4186100000000001
aF1.3909400000000001
aF1.3825700000000001
aF1.2793399999999999
aF-1.32582
aF-1.32582
aF-1.3370500000000001
aF2.4227599999999998
aF2.4275000000000002
aF2.4227599999999998
aF-0.141897
aF-0.188222
aF-0.188222
aF-2.6779500000000001
aF0.78539800000000004
aF0.78539800000000004
aF0.75092899999999996
aF-1.61622
aF-1.5708
aF-1.61622
aF2.0552700000000002
aF2.07789
aF2.0131700000000001
aF-0.48447800000000002
aF-0.48447800000000002
aF-0.58800300000000005
aF3.0940099999999999
aF3.0940099999999999
aF3.0940099999999999
aF0.50709800000000005
aF0.50709800000000005
aF0.44237399999999999
aF-1.5708
aF-1.61622
aF-1.61622
aF2.0552700000000002
aF1.9936499999999999
aF2.0131700000000001
aF-0.57430499999999995
aF-0.61466299999999996
aF-0.68231600000000003
aF3.0961699999999999
aF3.04664
aF3.0419200000000002
aF0.54854899999999995
aF0.50709800000000005
aF0.463648
aF-2.0131700000000001
aF-2.0552700000000002
aF-2.0955900000000001
aF1.80454
aF1.75902
aF1.7681899999999999
aF-0.68231600000000003
aF-0.68231600000000003
aF-0.71882999999999997
aF2.9078499999999998
aF2.8966099999999999
aF2.8966099999999999
aF0.44237399999999999
aF0.39852199999999999
aF0.41822399999999998
aF-2.0131700000000001
aF1.1902900000000001
aF1.1722699999999999
aF1.1722699999999999
aF-1.52084
aF-1.47584
aF-1.5708
aF2.0131700000000001
aF2.0131700000000001
aF1.96932
aF-0.50709899999999997
aF-0.53172399999999997
aF-0.54854899999999995
aF3.1415899999999999
aF3.0916299999999999
aF3.0916299999999999
aF0.48447800000000002
aF0.44237399999999999
aF0.41822399999999998
aF-1.90747
aF-1.9936499999999999
aF-1.9936499999999999
aF1.7063200000000001
aF1.7196899999999999
aF1.7196899999999999
aF-0.78539800000000004
aF-0.78539800000000004
aF-0.81986700000000001
aF2.8966099999999999
aF2.8501400000000001
aF2.8357100000000002
aF0.23374300000000001
aF0.244979
aF0.19739599999999999
aF-1.96932
aF-1.9936499999999999
aF-2.0131700000000001
aF1.61622
aF1.5708
aF1.6207499999999999
aF-0.85670599999999997
aF-0.88848000000000005
aF-0.88848000000000005
aF2.8501400000000001
aF2.8501400000000001
aF2.8049200000000001
aF0.23374300000000001
aF0.23374300000000001
aF0.19739599999999999
aF-2.07789
aF-2.03444
aF-2.0955900000000001
aF1.6614599999999999
aF1.6657500000000001
aF1.6183799999999999
aF-1.1071500000000001
aF-1.14794
aF-1.1071500000000001
aF2.5930399999999998
aF2.5930399999999998
aF2.48875
aF0.047583
aF-0
aF-0.049958000000000002
aF-2.63449
aF-2.63449
aF-2.63449
aF1.24905
aF1.2178100000000001
aF1.1722699999999999
aF-1.0637000000000001
aF-1.12842
aF-1.14794
aF2.63449
aF2.6098699999999999
aF2.5672899999999998
aF-0.047583
aF-0.14888999999999999
aF-0.094951999999999995
aF-2.7610899999999998
aF-2.7886000000000002
aF-2.8501400000000001
aF1.1071500000000001
aF1.08632
aF1.0637000000000001
aF-1.3370500000000001
aF-1.3370500000000001
aF-1.3909400000000001
aF2.3884400000000001
aF2.39066
aF2.39066
aF-0.244979
aF-0.244979
aF-0.336675
aF-2.8049200000000001
aF-2.8049200000000001
aF-2.8049200000000001
aF1.046
aF1.046
aF0.99649100000000002
aF-1.26492
aF-1.3370500000000001
aF-1.2793399999999999
aF2.5930399999999998
aF2.5269300000000001
aF2.5269300000000001
aF-0.188222
aF-0.19739499999999999
aF-0.19739499999999999
aF-2.8049200000000001
aF-2.8049200000000001
aF-2.8049200000000001
aF1.046
aF1.046
aF1.046
aF-1.2793399999999999
aF-1.2341200000000001
aF-1.3370500000000001
aF2.4227599999999998
aF2.4592800000000001
aF2.39066
aF-0.188222
aF-0.19739499999999999
aF-0.244979
aF-2.7233700000000001
aF-2.7610899999999998
aF-2.7610899999999998
aF1.14794
aF1.1722699999999999
aF1.0637000000000001
aF-1.2178100000000001
aF-1.2341200000000001
aF-1.2341200000000001
aF2.5930399999999998
aF2.5672899999999998
aF2.5672899999999998
aF0.047583
aF-0
aF0.049958000000000002
aF-2.4227599999999998
aF-2.4227599999999998
aF-2.4592800000000001
aF1.3473200000000001
aF1.32582
aF1.2793399999999999
aF-0.99649200000000004
aF-0.95613300000000001
aF-1.0222500000000001
aF2.7886000000000002
aF2.7430699999999999
aF2.69922
aF0.188221
aF0.094951999999999995
aF0.099668999999999994
aF-2.0131700000000001
aF-2.0552700000000002
aF-2.07789
aF1.75065
aF1.71269
aF1.7196899999999999
aF-0.81986700000000001
aF-0.851966
aF-0.91795000000000004
aF2.7610899999999998
aF2.7886000000000002
aF2.7430699999999999
aF0.188221
aF0.188221
aF0.049958000000000002
aF-2.3561899999999998
aF-2.39066
aF-2.3884400000000001
aF0.75315100000000001
aF0.71882999999999997
aF0.75092899999999996
aF-1.5708
aF-1.6657500000000001
aF-1.6614599999999999
aF2.03444
aF2.07789
aF2.03444
aF-0.44237399999999999
aF-0.44237399999999999
aF-0.50709899999999997
aF-3.0940099999999999
aF-3.0916299999999999
aF-3.0961699999999999
aF0.61466299999999996
aF0.61466299999999996
aF0.61466299999999996
aF-1.42191
aF-1.48014
aF-1.48014
aF2.2597200000000002
aF2.2531099999999999
aF2.1587999999999998
aF-0.54854899999999995
aF-0.57430499999999995
aF-0.50709899999999997
aF3.1415899999999999
aF3.1415899999999999
aF3.1415899999999999
aF0.68892399999999998
aF0.68231699999999995
aF0.65284699999999996
aF-1.86225
aF-1.90747
aF-1.9936499999999999
aF1.75065
aF1.71269
aF1.6657500000000001
aF-0.81764499999999996
aF-0.81986700000000001
aF-0.85670599999999997
aF2.8632900000000001
aF2.7886000000000002
aF2.7886000000000002
aF0.244979
aF0.30587900000000001
aF0.244979
aF-2.2531099999999999
aF-2.2531099999999999
aF-2.3217300000000001
aF1.4289000000000001
aF1.43527
aF1.47584
aF-0.88848000000000005
aF-0.91795000000000004
aF-1.0074799999999999
aF2.7187399999999999
aF2.7187399999999999
aF2.69922
aF0.23374300000000001
aF0.19739599999999999
aF0.244979
aF-2.39066
aF-2.48875
aF-2.4592800000000001
aF1.14794
aF1.1722699999999999
aF1.12842
aF-1.08632
aF-1.0637000000000001
aF-1.08632
aF2.7610899999999998
aF2.7430699999999999
aF2.7610899999999998
aF0.244979
aF0.19739599999999999
aF0.19739599999999999
aF-2.1193499999999998
aF-2.1587999999999998
aF-2.1193499999999998
aF1.47584
aF1.48014
aF1.4289000000000001
aF-0.851966
aF-0.81764499999999996
aF-0.851966
aF2.8966099999999999
aF2.8966099999999999
aF2.8501400000000001
aF0.35299000000000003
aF0.336675
aF0.30587900000000001
aF-2.1450999999999998
aF-2.1193499999999998
aF-2.2597200000000002
aF1.5708
aF1.52321
aF1.47584
aF-0.78539800000000004
aF-0.81986700000000001
aF-0.84781700000000004
aF2.8049200000000001
aF2.8501400000000001
aF2.8049200000000001
aF0.38050600000000001
aF0.29145700000000002
aF0.30587900000000001
aF-1.75902
aF-1.80454
aF-1.79427
aF1.9347799999999999
aF1.89255
aF1.86225
aF-0.64350099999999999
aF-0.61466299999999996
aF-0.68231600000000003
aF3.0940099999999999
aF3.0940099999999999
aF3.04664
aF0.50709800000000005
aF0.48447800000000002
aF0.48689900000000003
aF-2.0131700000000001
aF-2.0552700000000002
aF-2.03444
aF1.75065
aF1.61622
aF1.6207499999999999
aF-0.81986700000000001
aF-0.78539800000000004
aF-0.78539800000000004
aF2.9533700000000001
aF2.9533700000000001
aF2.9533700000000001
aF0.41822399999999998
aF0.39852199999999999
aF0.41822399999999998
aF-2.07789
aF-2.1450999999999998
aF-2.1450999999999998
aF1.7063200000000001
aF1.61622
aF1.6207499999999999
aF-0.75092899999999996
aF-0.81764499999999996
aF-0.851966
aF2.9996999999999998
aF2.9533700000000001
aF2.8966099999999999
aF0.39852199999999999
aF0.39852199999999999
aF0.37089100000000003
aF-2.0552700000000002
aF-2.1193499999999998
aF-2.0552700000000002
aF1.7063200000000001
aF1.6183799999999999
aF1.6704600000000001
aF-0.851966
aF-0.88848000000000005
aF-0.88187199999999999
aF2.7776100000000001
aF2.8049200000000001
aF2.7886000000000002
aF0.244979
aF0.099668999999999994
aF0.049958000000000002
aF-2.4227599999999998
aF-2.48875
aF-2.48875
aF1.48014
aF1.43527
aF1.42191
aF-0.78539800000000004
aF-0.78539800000000004
aF-0.78539800000000004
aF3.0509300000000001
aF3.04664
aF3.0419200000000002
aF0.57430499999999995
aF0.50709800000000005
aF0.463648
aF-2.0131700000000001
aF-2.0131700000000001
aF-2.1193499999999998
aF1.6183799999999999
aF1.5708
aF1.5708
aF-0.64350099999999999
aF-0.71882999999999997
aF-0.71882999999999997
aF2.9441999999999999
aF2.9078499999999998
aF2.9078499999999998
aF0.41822399999999998
aF0.35299000000000003
aF0.37089100000000003
aF-2.07789
aF-2.1193499999999998
aF-2.1193499999999998
aF1.6657500000000001
aF1.52321
aF1.52321
aF-0.61466299999999996
aF-0.64350099999999999
aF-0.61466299999999996
aF-2.3561899999999998
aF-2.4227599999999998
aF-2.3884400000000001
a.