(lp1
F-0.045422999999999998
aF0
aF-0.047583
aF0.047583
aF-0.049958000000000002
aF0.047583
aF-0.047583
aF0
aF0
aF0
aF-0.0021599999999999397
aF0.047579999999999956
aF-0.047579999999999956
aF-0.0023800000000000487
aF-0.044989999999999863
aF-0.043077000000000004
aF0
aF-0.047583
aF0.047583
aF-0.047583
aF-0.047579999999999956
aF0.047579999999999956
aF0
aF0
aF-0.094949999999999868
aF-0.0021600000000000022
aF0.049528999999999997
aF-0.094951999999999995
aF0
aF0.047583
aF-0.37748999999999988
aF0.045422999999999998
aF-0.099668999999999994
aF-0.049710999999999991
aF-0.046945000000000001
aF-0.0069929999999999992
aF0
aF0.023752999999999913
aF-0.084900999999999949
aF0.06807599999999997
aF-0.06807599999999997
aF-0.023251000000000022
aF-0.046940000000000204
aF-0.066559999999999953
aF0.066559999999999953
aF0
aF0
aF-0.046478000000000019
aF0
aF0
aF-0.0047399999999999665
aF0
aF0
aF-0.012344999999999995
aF0.05992900000000001
aF0
aF-0.089869999999999894
aF0.049510000000000165
aF-0.02574999999999994
aF-0.019519999999999982
aF0.061870000000000092
aF-0.10638999999999998
aF0
aF-0.013160000000000061
aF0
aF0
aF-0.0022199999999998887
aF0
aF-0.01442199999999999
aF-0.03079599999999999
aF0.05837500000000001
aF-0.074690000000000034
aF0.047111000000000014
aF-0.047590000000000021
aF0
aF-0.10244000000000009
aF0
aF0
aF-0.031240000000000046
aF0
aF-0.024150000000000116
aF-0.0212699999999999
aF-0.49984999999999991
aF0
aF0.045430000000000081
aF0
aF-0.047590000000000021
aF-0.081550000000000011
aF0.018020000000000147
aF-0.045540000000000136
aF0.040359999999999729
aF-0.028840000000000199
aF0
aF-0.34742200000000001
aF-0.094951999999999995
aF0.049958000000000002
aF0.036840000000000206
aF-0.068620000000000125
aF0
aF0.065119999999999845
aF-0.043849999999999945
aF-0.044519999999999893
aF0
aF0
aF-0.10844000000000009
aF0.084859999999999935
aF-0.045520000000000005
aF0
aF0.004149999999999654
aF-0.032099999999999795
aF-0.034470000000000223
aF0
aF-0.056757000000000002
aF0
aF-0.061850000000000183
aF0.061850000000000183
aF-0.12022000000000022
aF-0.061150000000000038
aF0
aF-0.023749999999999938
aF-0.045420000000000016
aF0
aF-0.045239999999999947
aF0.020830000000000126
aF-0.042100000000000026
aF0
aF-0.0063699999999999868
aF-0.046329999999999982
aF-0.0069900000000000517
aF-0.048510000000000053
aF-0.059930000000000039
aF-0.098929999999999962
aF0.098929999999999962
aF-0.099669999999999925
aF0.090659999999999963
aF0
aF-0.045220000000000038
aF0
aF0.045220000000000038
aF-0.091690000000000049
aF0.060899999999999954
aF-0.042577999999999894
aF0
aF-0.024630000000000152
aF-0.022619999999999862
aF0
aF0
aF0
aF-0.0021599999999999397
aF0.047590000000000021
aF-0.049960000000000004
aF-0.70097100000000001
aF-0.034469000000000083
aF0.034469000000000083
aF-0.034469000000000083
aF-0.034468999999999972
aF0
aF0.089050000000000296
aF-0.01631999999999989
aF-0.069860000000000255
aF0.024329999999999963
aF-1.072208
aF-0.044993999999999992
aF-0.004716999999999999
aF-0.049710999999999991
aF-0.056932999999999997
aF0.056760000000000144
aF-0.1030899999999999
aF-0.051230000000000331
aF0.051230000000000331
aF-0.042220000000000368
aF-0.045430000000000081
aF0.045430000000000081
aF-0.047590000000000021
aF0.044999999999999929
aF0
aF-0.10577700000000001
aF0.036838999999999955
aF0
aF0
aF0
aF-0.043830000000000258
aF-0.018019999999999925
aF-0.024329999999999963
aF-0.040789999999999882
aF0
aF0
aF-0.047583
aF0.049958000000000002
aF0.0026249999999999954
aF-0.052582999999999998
aF-0.014429999999999943
aF-0.046469999999999789
aF0.060899999999999732
aF-0.014429999999999943
aF0
aF-0.041309999999999958
aF-0.0082199999999998941
aF0
aF-0.004709999999999992
aF-0.0052100000000001589
aF-0.058610000000000051
aF0
aF-0.0069900000000000517
aF0.046939999999999982
aF0.044329999999999981
aF-0.040669999999999984
aF-0.03212000000000037
aF0.036270000000000024
aF-0.034319999999999684
aF0
aF0.046478000000000019
aF-0.046478000000000019
aF-0.046478000000000019
aF-0.01442199999999999
aF0.06090000000000001
aF0.036080000000000112
aF0
aF0
aF-0.061249999999999805
aF0.039349999999999774
aF-0.0023750000000000021
aF-0.047583
aF0
aF0.049958000000000002
aF0
aF-0.0019800000000000928
aF0
aF0.045430000000000081
aF-0.049960000000000004
aF0
aF-0.211094
aF-0.025758000000000059
aF0.076939000000000091
aF-0.14100899999999994
aF0.064069999999999849
aF0
aF-0.09207999999999994
aF0.040569999999999995
aF-0.004709999999999992
aF-0.049220000000000041
aF-0.64350200000000002
aF-0.067208000000000045
aF-0.064719999999999889
aF0.064719999999999889
aF0
aF-0.08888000000000007
aF-0.0021599999999999397
aF0.047590000000000021
aF-0.047590000000000021
aF-0.052079999999999904
aF0.0093449999999999367
aF-0.078542000000000001
aF-0.025758000000000059
aF0
aF-0.041449999999999987
aF-0.04235000000000011
aF0
aF-0.019519999999999982
aF0
aF-0.0212699999999999
aF0
aF-0.045540000000000136
aF0
aF-0.018020000000000147
aF-0.043830000000000036
aF-0.064490000000000158
aF0
aF-0.039060000000000095
aF0.036840000000000206
aF0
aF-0.040790000000000104
aF-0.042349999999999888
aF0
aF0.061849999999999961
aF-0.0023699999999999832
aF-0.049719999999999986
aF0
aF-0.042220000000000146
aF0
aF-0.033320000000000016
aF0.012340000000000018
aF-0.012340000000000018
aF-0.037490000000000023
aF-0.042349999999999888
aF-0.041449999999999987
aF0.016824999999999979
aF-0.02019999999999994
aF-0.024625000000000008
aF-0.04258099999999998
aF0.022619999999999862
aF-0.064729999999999954
aF0.0212699999999999
aF0
aF-0.065119999999999845
aF0.049958000000000002
aF0
aF0
aF0
aF-0.052582999999999998
aF0.023260000000000058
aF-0.043449999999999989
aF0
aF0
aF0
aF-0.080379999999999896
aF0.040319999999999911
aF0
aF-0.022619999999999862
aF-0.024630000000000152
aF-0.049960000000000004
aF0.094959999999999933
aF-0.049529999999999852
aF-0.045430000000000081
aF-0.045420000000000016
aF-0.045420000000000016
aF-0.047590000000000021
aF0
aF0
aF-0.052079999999999904
aF-0.087408000000000041
aF-0.023249999999999993
aF-0.0212699999999999
aF0.064719999999999889
aF-0.022619999999999862
aF-0.080439999999999845
aF-0.027309999999999945
aF-0.045220000000000038
aF0.061539999999999928
aF-0.031239999999999934
aF-0.071307000000000009
aF0
aF0.034469000000000083
aF-0.034469000000000083
aF0
aF-0.004149999999999654
aF-0.062420000000000364
aF0
aF-0.13649499999999998
aF0
aF0
aF-0.0023800000000000487
aF0
aF0
aF0.018015999999999976
aF-0.092642999999999975
aF0.047111000000000014
aF-0.066559999999999953
aF0
aF-0.034470000000000223
aF-0.014929999999999888
aF0
aF0.014929999999999888
aF-0.056750000000000078
aF0.045520000000000005
aF-0.045520000000000005
aF-0.034320000000000128
aF0
aF0
aF0.021274000000000015
aF-0.029909999999999659
aF-0.0066100000000002268
aF-0.094310000000000116
aF-0.043850999999999973
aF0
aF0
aF-0.047579999999999956
aF0
aF0
aF-0.027515999999999985
aF0.017901
aF0
aF-0.17521999999999993
aF0
aF-0.10307999999999984
aF0
aF-0.056750000000000078
aF-0.012350000000000083
aF0.034468999999999972
aF-0.066567999999999961
aF-0.036514000000000046
aF-0.030299999999999994
aF-0.014920000000000044
aF0.045220000000000038
aF0
aF0
aF0.0212699999999999
aF-0.064719999999999889
aF0
aF0
aF-0.096469999999999834
aF-0.26909000000000027
aF0
aF-0.023759999999999781
aF-0.04258099999999998
aF-0.013698000000000099
aF0.013698000000000099
aF-0.049529999999999852
aF0
aF0
aF0.021274000000000015
aF-0.065126000000000017
aF0
aF-0.10429000000000022
aF-0.029909999999999659
aF0
aF-0.51350999999999991
aF-0.0042999999999999705
aF-0.093269999999999964
aF-0.061529999999999863
aF0
aF-0.057787000000000033
aF0.036514000000000046
aF-0.094309999999999894
aF0
aF-0.047590000000000021
aF0.020830000000000126
aF-0.020830000000000126
aF-0.085950000000000193
aF-0.10756399999999999
aF-0.074261000000000021
aF0.0066079999999999472
aF-0.049960000000000004
aF-0.044989999999999863
aF0
aF-0.014767000000000086
aF-0.064070999999999934
aF0.022620000000000029
aF-0.043850000000000167
aF-0.0212699999999999
aF0
aF-0.044329999999999981
aF-0.13552000000000008
aF0.047579999999999956
aF-0.066567999999999961
aF-0.021949999999999914
aF-0.023749999999999938
aF0.025759000000000087
aF-0.011230000000000073
aF0.04455000000000009
aF-0.090070000000000094
aF0.066710000000000047
aF-0.032250000000000334
aF-0.034459999999999713
aF-0.061848000000000014
aF0.04553299999999999
aF-0.089383999999999963
aF-0.044989999999999863
aF0
aF0.044989999999999863
aF-0.010821999999999998
aF-0.026659999999999906
aF-0.013698000000000099
aF-0.047370000000000134
aF0.047370000000000134
aF-0.043080000000000007
aF-0.061150000000000038
aF-0.0212699999999999
aF-0.043850000000000167
aF-0.32932600000000001
aF-0.016529999999999934
aF-0.018020000000000147
aF0.045540000000000136
aF0
aF-0.061850000000000183
aF0.043830000000000036
aF-0.039449999999999985
aF0.039449999999999985
aF-0.066109999999999669
aF-0.047583
aF0
aF-0.0023750000000000021
aF0.026659999999999684
aF0
aF-0.026659999999999684
aF0
aF-0.014929999999999888
aF-0.061850000000000183
aF0
aF-0.019699999999999829
aF-0.061850000000000183
aF-0.064839999999999787
aF0.038180000000000103
aF-0.028840000000000199
aF-0.0023750000000000021
aF-0.061935999999999991
aF0.034054999999999946
aF-0.029905999999999988
aF-0.052079999999999904
aF-0.093010000000000037
aF0.045420000000000016
aF0.020830000000000126
aF-0.042100000000000026
aF0.019520000000000204
aF-0.067653000000000074
aF-0.036513999999999935
aF0
aF5.8515600000000001
aF-0.046940000000000204
aF0
aF0.022620000000000029
aF-0.12659200000000004
aF0.061867999999999979
aF-0.024150000000000116
aF-0.042100000000000026
aF0.020830000000000126
aF-0.044860000000000122
aF0.051230000000000109
aF0.0069999999999998952
aF-0.068613000000000035
aF-0.030172000000000088
aF0.0022220000000000573
aF0
aF0.0091700000000001225
aF-0.0091700000000001225
aF-0.0083699999999999886
aF0.034319999999999684
aF-0.066570000000000018
aF0.034470000000000223
aF-0.047584000000000015
aF0.046478000000000019
aF-0.046478000000000019
aF-0.045220000000000038
aF-0.046469999999999789
aF0
aF0.085069000000000061
aF-0.0081299999999999706
aF-0.20238300000000009
aF-0.011230000000000073
aF0
aF-0.045520000000000005
aF-0.10309000000000035
aF0
aF-0.034459999999999713
aF0.012344999999999995
aF-0.012344999999999995
aF-0.04521799999999998
aF-0.037719999999999754
aF-0.043830000000000258
aF-0.014920000000000044
aF0.064069999999999849
aF-0.022619999999999862
aF-0.024630000000000152
aF-0.046480000000000077
aF-0.047579999999999956
aF-0.017540000000000111
aF-0.066570000000000018
aF-0.066559999999999953
aF0.032100000000000239
aF-0.034133000000000024
aF-0.04521799999999998
aF-0.016315000000000024
aF0
aF0.01631999999999989
aF-0.074689999999999923
aF-0.25073000000000012
aF-0.13018699999999994
aF0
aF0.026249999999999885
aF-0.021949999999999914
aF-0.023749999999999938
aF0
aF-0.042220000000000146
aF0
aF-0.037959999999999994
aF0.043449999999999989
aF0.019520000000000204
aF-0.043850000000000167
aF-0.024330999999999992
aF-0.019519999999999982
aF0
aF-0.14063999999999988
aF6.2355999999999998
aF0
aF0
aF-0.04031800000000002
aF0
aF-0.043830000000000036
aF0.043830000000000036
aF-0.043830000000000036
aF-0.035250000000000004
aF-0.046329999999999982
aF-0.04222999999999999
aF-0.013698000000000099
aF-0.025758000000000059
aF-0.064069999999999849
aF-0.018019999999999925
aF-0.065119999999999845
aF0
aF-0.004716999999999999
aF-0.044993999999999992
aF-0.0023750000000000021
aF-0.0022199999999998887
aF-0.032099999999999795
aF0.004149999999999654
aF0
aF-0.046329999999999982
aF-0.10323000000000015
aF-0.046480000000000077
aF0
aF-0.05771000000000015
aF-0.065990000000000215
aF0.0047400000000004106
aF-0.0047400000000004106
aF-0.094313999999999995
aF-0.046325000000000005
aF0
aF-0.084910000000000263
aF-0.032246999999999915
aF0
aF-0.034469000000000083
aF-0.5525199999999999
aF0.045420000000000016
aF-0.045420000000000016
aF-0.078840000000000021
aF0.022619999999999862
aF-0.064719999999999889
aF-0.04210400000000003
aF0
aF-0.10352500000000003
aF-0.047579999999999956
aF0
aF0
aF-0.017697999999999992
aF0
aF-0.064724000000000059
aF0
aF-0.045420000000000016
aF0
aF-0.040319999999999911
aF-0.06162000000000023
aF0.019520000000000204
aF0
aF-0.040358000000000005
aF-0.067653000000000074
aF0.049529999999999852
aF-0.049529999999999852
aF-0.0047199999999998354
aF0.023752999999999913
aF-0.041450999999999905
aF-0.043450000000000044
aF0
aF-0.042100000000000026
aF-0.040319999999999911
aF-0.032510000000000039
aF-0.045520000000000005
aF0.0091699999999999005
aF-0.029469000000000078
aF0
aF-0.036513999999999935
aF-0.084850000000000314
aF-0.011239999999999917
aF0
aF0
aF-0.043852000000000002
aF-0.004630000000000023
aF0.0212699999999999
aF-0.016529999999999934
aF-0.018020000000000147
aF0
aF-0.36826999999999988
aF0.044999999999999929
aF-0.094959999999999933
aF-0.082419999999999938
aF0
aF-0.043850000000000167
aF-0.043450999999999962
aF-0.024625000000000008
aF-0.016824999999999979
aF6.13429
aF-0.049960000000000004
aF0
aF0.020830000000000015
aF-0.04210400000000003
aF-0.024150000000000005
aF0.061849999999999961
aF-0.086179999999999923
aF0
aF-0.044329999999999981
aF0.013369999999999882
aF0
aF-0.034469000000000083
aF0
aF-0.034468999999999972
aF-0.047590000000000021
aF-0.046469999999999789
aF-0.014429999999999943
aF0
aF0.011235999999999996
aF-0.047583000000000014
aF0
aF-0.024329999999999963
aF-0.019520000000000204
aF-0.041309999999999958
aF-0.045420000000000016
aF0.049949999999999939
aF-1.148163
aF-0.03177400000000008
aF0
aF0
aF0
aF-0.045220000000000038
aF0
aF0
aF-0.036347000000000018
aF-0.064719999999999889
aF-0.040790000000000104
aF-0.061150000000000038
aF0.0039299999999999891
aF0.004290000000000127
aF-0.047370000000000134
aF-0.043449999999999989
aF-0.040789999999999882
aF0.0212699999999999
aF0
aF0
aF-0.10428999999999977
aF0
aF-0.047583
aF-0.049958000000000002
aF0
aF0
aF0
aF-0.01368999999999998
aF-0.016310000000000047
aF-0.045540000000000136
aF0
aF-0.064719999999999889
aF-0.019519999999999982
aF0.041450000000000209
aF-0.024620000000000086
aF-0.042580000000000062
aF-0.047583
aF-0.10130699999999999
aF0.053938
aF0
aF-0.027510000000000367
aF-0.061539999999999928
aF0
aF-0.020830000000000126
aF-0.022619999999999862
aF-0.011230000000000073
aF0
aF-0.053889999999999993
aF0
aF0.0022199999999998887
aF0
aF-0.056757000000000002
aF0
aF-0.091696
aF-0.061850000000000183
aF0
aF0
aF0.015619999999999967
aF0
aF-0.049509000000000025
aF0.014419999999999877
aF-0.072130000000000027
aF0.05771000000000015
aF0
aF-0.066109999999999669
aF0
aF0.0091729999999999867
aF-0.0091729999999999867
aF0
aF0
aF0.045220000000000038
aF0
aF0.10068900000000003
aF0
aF0
aF-0.061529999999999863
aF0.045219999999999816
aF-0.10292999999999997
aF0
aF0.03652000000000033
aF-0.036840000000000206
aF-0.28789100000000001
aF-0.0091729999999999867
aF-0.047584000000000015
aF-0.045420000000000016
aF-0.08313999999999977
aF0
aF0
aF0.024329999999999963
aF-0.10856999999999983
aF0.047109999999999985
aF-0.016310000000000047
aF0
aF0.039449999999999985
aF-0.02574999999999994
aF0
aF-0.0023750000000000021
aF-0.047583
aF0.049958000000000002
aF-0.066570000000000018
aF0
aF-0.03652000000000033
aF0.010270000000000001
aF-0.021500000000000075
aF-0.046480000000000077
aF-0.31417600000000001
aF0.040359000000000034
aF-0.066117000000000092
aF0.045530000000000292
aF-0.045530000000000292
aF-0.043849999999999945
aF0.046324000000000004
aF-0.093269000000000005
aF0.004716999999999999
aF-0.043850000000000167
aF-0.042100000000000026
aF-0.022619999999999862
aF0
aF-0.037959999999999994
aF0.0069999999999998952
aF-1.064846
aF-0.032098999999999989
aF-0.065984000000000043
aF0.018019999999999925
aF0.027510000000000367
aF-0.045530000000000292
aF-0.056758000000000003
aF0
aF-0.138263
aF-0.30091999999999963
aF-0.034470000000000223
aF0.0022199999999998887
aF0
aF-0.034321000000000046
aF0.032098999999999989
aF0
aF-0.09495000000000009
aF0.004290000000000127
aF-0.061150000000000038
aF0.043449999999999989
aF-0.043449999999999989
aF0
aF0
aF-0.064724999999999977
aF-0.047369999999999912
aF0.0023800000000000487
aF-0.0045399999999999885
aF-0.010821999999999998
aF0
aF0
aF0.0069900000000000517
aF-0.058230000000000004
aF0
aF-0.064229999999999787
aF-0.0066100000000002268
aF-0.094310000000000116
aF-0.041449999999999987
aF-0.025756000000000001
aF0.041449999999999987
aF6.2377599999999997
aF0
aF0
aF-0.12872099999999997
aF-0.0066070000000000295
aF-0.029469999999999996
aF0.089050000000000074
aF-0.045220000000000038
aF-0.086179999999999923
aF0.050150000000000139
aF0.0063699999999999868
aF-0.046939999999999982
aF0.0022220000000000573
aF-0.0022220000000000573
aF-0.036838999999999955
aF0.058370000000000033
aF-0.074689999999999923
aF0
aF-0.091696
aF0.06090000000000001
aF0
aF-0.10801000000000016
aF0
aF-0.068620000000000125
aF-0.012189999999999923
aF0.0063699999999999868
aF0.040569999999999995
aF-0.03177400000000008
aF-0.029469999999999996
aF-0.089529999999999887
aF-0.024329999999999963
aF0
aF-0.019519999999999982
aF-0.011235999999999996
aF-0.036347000000000018
aF0.047583000000000014
aF0.068620000000000125
aF-0.098090000000000011
aF0.029469999999999885
aF0
aF0.024329999999999963
aF-0.019519999999999982
aF-0.064069999999999849
aF0.022619999999999862
aF-0.022619999999999862
aF-0.058750000000000302
aF-0.018019999999999925
aF0.018019999999999925
aF0
aF-0.047583000000000014
aF0
aF0
aF-0.039449999999999985
aF0.039449999999999985
aF-0.0082199999999998941
aF0.0042999999999999705
aF-0.051239999999999952
aF-0.032098999999999989
aF0.034321000000000046
aF-0.034321000000000046
aF-0.056760000000000144
aF0
aF-0.046469999999999789
aF0.016315000000000024
aF-0.016315000000000024
aF-0.03079599999999999
aF-0.06720999999999977
aF0.02574999999999994
aF-0.14037000000000033
aF0
aF-0.047590000000000021
aF-0.047369999999999912
aF0
aF-0.068938000000000055
aF-0.02795000000000003
aF-0.045220000000000038
aF0.045220000000000038
aF-0.045220000000000038
aF0.089048999999999989
aF-0.089048999999999989
aF0.01442199999999999
aF-0.039330000000000087
aF-0.045520000000000005
aF0.010270000000000001
aF-0.040910000000000002
aF-0.04222999999999999
aF-0.030299999999999994
aF0
aF0.02883800000000003
aF-0.067653000000000074
aF0
aF0
aF-0.047369999999999912
aF0
aF-0.022620000000000029
aF0.0024210000000000065
aF-0.024150000000000116
aF-0.042100000000000026
aF0.043449999999999989
aF0.0076600000000000001
aF-0.13443000000000005
aF0.004529999999999923
aF-0.034468999999999972
aF0.034468999999999972
aF0
aF-0.04632999999999976
aF0
aF0
aF-0.066254000000000035
aF-0.019701999999999997
aF0.019701999999999997
aF0
aF-0.06720999999999977
aF0
aF0.0058200000000001584
aF-0.090100000000000069
aF0.004529999999999923
aF0.034469000000000083
aF-0.066715999999999998
aF-0.034321000000000046
aF-0.046940000000000204
aF0.035250000000000004
aF-0.056760000000000144
aF0
aF0
aF-0.027630999999999961
aF0.022619999999999862
aF-0.064079999999999693
aF0.064079999999999693
aF0
aF-0.087940000000000129
aF0.052080000000000126
aF-0.32024200000000003
aF-0.036514000000000046
aF-0.029905999999999988
aF-0.027309999999999945
aF0.027309999999999945
aF-0.01631999999999989
aF0.047583000000000014
aF-0.14530999999999999
aF-0.049710999999999991
aF-0.066570000000000018
aF-0.065990000000000215
aF0
aF0.044869999999999965
aF-0.044869999999999965
aF-0.013360000000000039
aF-0.14189700000000005
aF0
aF0
aF-0.043079999999999785
aF-0.004290000000000127
aF-0.0047199999999998354
aF0.067206999999999906
aF-0.067206999999999906
aF-0.043450000000000044
aF0.0212699999999999
aF0
aF-0.10617999999999972
aF-0.13227000000000011
aF-0.047579999999999956
aF0
aF0
aF-0.075328999999999979
aF0
aF-0.055499999999999883
aF-0.036350000000000104
aF-0.045520000000000227
aF0.019701999999999997
aF-0.065233999999999959
aF0.017901
aF0
aF-0.04145999999999983
aF0.02574999999999994
aF-0.040569999999999995
aF-0.14254000000000011
aF0
aF-0.066114000000000006
aF-0.02883800000000003
aF0
aF-0.27829999999999977
aF-0.066570000000000018
aF0.034319999999999684
a.