(lp0
F-0.0
aF-0.0
aF-0.047583
aF-0.0
aF-0.049958
aF0.047583
aF-0.0
aF-0.0
aF-0.0
aF-0.0
aF3.09401
aF3.14159
aF3.09401
aF3.09163
aF3.04664
aF0.047583
aF0.047583
aF-0.0
aF0.047583
aF-0.0
aF3.09401
aF3.14159
aF3.14159
aF3.14159
aF3.04664
aF0.045423
aF0.094952
aF-0.0
aF-0.0
aF0.047583
aF-2.39066
aF-0.0
aF-0.099669
aF-0.099669
aF-0.141897
aF-0.14889
aF-1.38257
aF0.548549
aF0.463648
aF0.531724
aF0.463648
aF0.463648
aF2.9997
aF2.28963
aF2.35619
aF2.35619
aF-0.244979
aF-0.291457
aF-0.291457
aF2.28963
aF2.28489
aF2.28489
aF-0.244979
aF-0.257324
aF-0.197395
aF-2.52693
aF-2.6168
aF-2.56729
aF-2.59304
aF1.12842
aF1.19029
aF1.0839
aF-1.27934
aF-1.2925
aF-1.2925
aF2.32395
aF2.32173
aF2.32173
aF-0.305879
aF-0.336675
aF-0.2783
aF-0.35299
aF-0.305879
aF-2.9442
aF-2.9442
aF-3.04664
aF0.652847
aF0.643501
aF0.643501
aF-1.98902
aF-2.01317
aF-2.03444
aF1.47584
aF1.47584
aF1.5708
aF1.5708
aF1.52321
aF-1.23412
aF-1.17227
aF-1.21781
aF2.56729
aF2.49809
aF2.49809
aF0.094952
aF-0.0
aF0.049958
aF-2.39066
aF-2.45928
aF-2.45928
aF1.17227
aF1.12842
aF1.0839
aF-1.31347
aF-1.31347
aF-1.42191
aF-1.33705
aF-1.38257
aF-1.38257
aF2.42276
aF2.39066
aF2.35619
aF-0.188222
aF-0.244979
aF-0.244979
aF-2.80492
aF-2.74307
aF-2.86329
aF1.046
aF1.046
aF1.02225
aF-1.61622
aF-1.61622
aF-1.66146
aF2.05527
aF2.01317
aF2.01317
aF1.4289
aF1.38257
aF1.42191
aF1.3734
aF1.31347
aF-1.52084
aF-1.42191
aF-1.5708
aF-1.48014
aF-1.48014
aF1.86225
aF1.86225
aF1.90747
aF1.81578
aF1.87668
aF-1.03907
aF-1.03907
aF-1.0637
aF-1.08632
aF-1.08632
aF1.52537
aF1.52537
aF1.52321
aF1.5708
aF1.52084
aF-0.750929
aF-0.785398
aF-0.750929
aF-0.785398
aF-0.819867
aF2.76109
aF2.85014
aF2.7886
aF2.71874
aF2.74307
aF-0.049958
aF-0.094952
aF-0.099669
aF-0.099669
aF-0.156602
aF-2.89661
aF-2.9997
aF-3.05093
aF-2.9997
aF-3.04192
aF1.52537
aF1.5708
aF1.52321
aF1.52084
aF1.52084
aF-0.856706
aF-0.819867
aF-0.819867
aF-0.819867
aF-0.819867
aF2.76109
aF2.74307
aF2.71874
aF2.67795
aF2.67795
aF0.047583
aF-0.0
aF0.049958
aF0.052583
aF-0.0
aF-2.85014
aF-2.89661
aF-2.83571
aF-2.85014
aF-2.85014
aF1.48406
aF1.47584
aF1.47584
aF1.47113
aF1.46592
aF-1.42191
aF-1.42191
aF-1.4289
aF-1.4289
aF-1.39094
aF2.41861
aF2.38649
aF2.42276
aF2.38844
aF2.38844
aF-0.244979
aF-0.291457
aF-0.291457
aF-0.305879
aF-0.244979
aF2.48875
aF2.48875
aF2.48875
aF2.4275
aF2.46685
aF0.047583
aF-0.0
aF-0.0
aF0.049958
aF0.049958
aF1.52537
aF1.52537
aF1.5708
aF1.52084
aF1.52084
aF-0.996492
aF-1.02225
aF-0.945311
aF-1.08632
aF-1.02225
aF1.48406
aF1.43527
aF1.47584
aF1.47113
aF1.42191
aF-0.996492
aF-1.0637
aF-1.12842
aF-1.0637
aF-1.0637
aF1.52537
aF1.52321
aF1.5708
aF1.52321
aF1.47113
aF-0.91795
aF-0.996492
aF-1.02225
aF-1.02225
aF-1.0637
aF1.14794
aF1.14794
aF1.12842
aF1.12842
aF1.10715
aF-1.17227
aF-1.21781
aF-1.21781
aF-1.19029
aF-1.23412
aF2.32395
aF2.32395
aF2.28489
aF2.32173
aF2.25311
aF1.99365
aF1.9513
aF1.90747
aF1.96932
aF-1.62075
aF-1.67047
aF-1.67047
aF-1.71269
aF-1.71269
aF1.81578
aF1.82812
aF1.81578
aF1.77829
aF1.73594
aF-0.548549
aF-0.531724
aF-0.507099
aF-0.531724
aF-0.574305
aF-2.63449
aF-2.69922
aF-2.67795
aF-2.67795
aF-2.74307
aF-0.0
aF-0.0
aF-0.0
aF-0.0
aF-0.052583
aF-2.03444
aF-2.07789
aF-2.07789
aF-2.11935
aF-2.11935
aF1.046
aF1.08632
aF1.08632
aF1.0637
aF1.03907
aF-1.5708
aF-1.47584
aF-1.52537
aF-1.5708
aF-1.61622
aF1.5708
aF1.52321
aF1.52321
aF1.52321
aF1.47113
aF-1.0839
aF-1.10715
aF-1.12842
aF-1.0637
aF-1.08632
aF1.93478
aF1.90747
aF1.86225
aF1.92379
aF1.89255
aF-0.785398
aF-0.785398
aF-0.750929
aF-0.785398
aF-0.785398
aF2.41861
aF2.35619
aF2.35619
aF-0.442374
aF-0.442374
aF-0.442374
aF-3.09401
aF-3.09401
aF-3.09401
aF0.398522
aF0.305879
aF0.35299
aF-2.35619
aF-2.35619
aF-2.39066
aF1.23412
aF1.23412
aF1.24905
aF-1.38257
aF-1.33705
aF-1.38257
aF2.28963
aF2.28963
aF2.28963
aF-0.442374
aF2.25972
aF2.25311
aF2.1588
aF-0.442374
aF-0.442374
aF-0.442374
aF3.09401
aF3.09401
aF3.09401
aF0.35299
aF0.370891
aF0.370891
aF-2.25311
aF-2.25311
aF-2.35619
aF1.38257
aF1.32582
aF1.31347
aF-0.785398
aF-0.851966
aF-0.88848
aF2.81984
aF2.80492
aF2.85014
aF0.197396
aF1.14794
aF1.12842
aF1.0637
aF-1.47584
aF-1.47584
aF-1.52537
aF2.11935
aF2.11935
aF2.09559
aF-0.574305
aF-0.588003
aF-0.574305
aF3.04664
aF3.04664
aF2.9927
aF0.463648
aF0.398522
aF0.398522
aF-2.22364
aF-2.28963
aF-2.28963
aF1.48014
aF1.47584
aF1.38257
aF-1.27934
aF0.909753
aF0.851966
aF0.88848
aF-1.52321
aF-1.52321
aF-1.5708
aF2.05527
aF2.03444
aF1.96932
aF-0.614663
aF-0.688924
aF-0.682316
aF3.09163
aF3.04664
aF3.04664
aF0.548549
aF0.484478
aF0.507098
aF-2.01317
aF-2.03444
aF-1.99365
aF1.70632
aF1.5708
aF1.61838
aF-0.851966
aF1.046
aF1.02225
aF1.02225
aF-1.33705
aF-1.2925
aF-1.38257
aF2.38844
aF2.35619
aF2.32173
aF-0.398523
aF-0.35299
aF-0.442374
aF-3.09163
aF-3.09163
aF-3.04664
aF0.614663
aF0.588003
aF0.574305
aF-1.66575
aF-1.61838
aF-1.66146
aF2.03444
aF2.01317
aF1.96932
aF-0.682316
aF1.19029
aF1.17227
aF1.21781
aF-1.17227
aF-1.23412
aF-1.19029
aF2.55359
aF2.59304
aF2.52693
aF-0.047583
aF-0.047583
aF-0.049958
aF-2.52693
aF-2.52693
aF-2.55359
aF1.24905
aF1.23412
aF1.17227
aF-1.15257
aF-1.17227
aF-1.23412
aF2.48875
aF2.52693
aF2.49809
aF0.047583
aF0.847817
aF0.881872
aF0.851966
aF-1.52321
aF-1.61622
aF-1.5708
aF2.05527
aF2.01317
aF2.01317
aF-0.682316
aF-0.71883
aF-0.71883
aF3.04664
aF2.9997
aF2.9997
aF0.507098
aF0.380506
aF0.442374
aF-2.01317
aF-2.05527
aF-2.03444
aF1.66146
aF1.71269
aF1.71969
aF-0.88848
aF0.817645
aF0.819867
aF0.819867
aF-1.3734
aF-1.38257
aF-1.39094
aF2.42276
aF2.35619
aF2.39066
aF-0.244979
aF-0.244979
aF-0.291457
aF-2.85014
aF-2.89661
aF-2.89661
aF1.03038
aF1.02225
aF0.819867
aF-1.33705
aF-1.33705
aF-1.38257
aF2.35619
aF2.35619
aF2.32173
aF-0.244979
aF-0.257324
aF-0.336675
aF-2.76109
aF-2.80492
aF-2.81984
aF1.08632
aF1.0637
aF1.03907
aF-1.32582
aF-1.3734
aF-1.39094
aF2.35619
aF2.28963
aF2.32173
aF-0.291457
aF-0.336675
aF-0.35299
aF-2.80492
aF-2.7886
aF-2.86329
aF1.08632
aF0.956133
aF0.956133
aF-1.33705
aF1.046
aF1.02225
aF1.02225
aF-1.71269
aF-1.71269
aF-1.75065
aF2.07789
aF2.01317
aF1.96932
aF-0.422854
aF-0.442374
aF-0.442374
aF-3.09401
aF3.14159
aF3.14159
aF0.524796
aF0.484478
aF0.484478
aF-1.9513
aF-1.90747
aF-1.9513
aF1.75902
aF1.71269
aF1.67046
aF-0.996492
aF-1.02225
aF-1.08632
aF2.74307
aF2.67795
aF2.67795
aF0.094952
aF0.049958
aF0.047583
aF-2.39066
aF-2.42276
aF-2.41861
aF1.39094
aF1.38257
aF1.27934
aF-1.32582
aF-1.32582
aF-1.33705
aF2.42276
aF2.4275
aF2.42276
aF-0.141897
aF-0.188222
aF-0.188222
aF-2.67795
aF0.785398
aF0.785398
aF0.750929
aF-1.61622
aF-1.5708
aF-1.61622
aF2.05527
aF2.07789
aF2.01317
aF-0.484478
aF-0.484478
aF-0.588003
aF3.09401
aF3.09401
aF3.09401
aF0.507098
aF0.507098
aF0.442374
aF-1.5708
aF-1.61622
aF-1.61622
aF2.05527
aF1.99365
aF2.01317
aF-0.574305
aF-0.614663
aF-0.682316
aF3.09617
aF3.04664
aF3.04192
aF0.548549
aF0.507098
aF0.463648
aF-2.01317
aF-2.05527
aF-2.09559
aF1.80454
aF1.75902
aF1.76819
aF-0.682316
aF-0.682316
aF-0.71883
aF2.90785
aF2.89661
aF2.89661
aF0.442374
aF0.398522
aF0.418224
aF-2.01317
aF1.19029
aF1.17227
aF1.17227
aF-1.52084
aF-1.47584
aF-1.5708
aF2.01317
aF2.01317
aF1.96932
aF-0.507099
aF-0.531724
aF-0.548549
aF3.14159
aF3.09163
aF3.09163
aF0.484478
aF0.442374
aF0.418224
aF-1.90747
aF-1.99365
aF-1.99365
aF1.70632
aF1.71969
aF1.71969
aF-0.785398
aF-0.785398
aF-0.819867
aF2.89661
aF2.85014
aF2.83571
aF0.233743
aF0.244979
aF0.197396
aF-1.96932
aF-1.99365
aF-2.01317
aF1.61622
aF1.5708
aF1.62075
aF-0.856706
aF-0.88848
aF-0.88848
aF2.85014
aF2.85014
aF2.80492
aF0.233743
aF0.233743
aF0.197396
aF-2.07789
aF-2.03444
aF-2.09559
aF1.66146
aF1.66575
aF1.61838
aF-1.10715
aF-1.14794
aF-1.10715
aF2.59304
aF2.59304
aF2.48875
aF0.047583
aF-0.0
aF-0.049958
aF-2.63449
aF-2.63449
aF-2.63449
aF1.24905
aF1.21781
aF1.17227
aF-1.0637
aF-1.12842
aF-1.14794
aF2.63449
aF2.60987
aF2.56729
aF-0.047583
aF-0.14889
aF-0.094952
aF-2.76109
aF-2.7886
aF-2.85014
aF1.10715
aF1.08632
aF1.0637
aF-1.33705
aF-1.33705
aF-1.39094
aF2.38844
aF2.39066
aF2.39066
aF-0.244979
aF-0.244979
aF-0.336675
aF-2.80492
aF-2.80492
aF-2.80492
aF1.046
aF1.046
aF0.996491
aF-1.26492
aF-1.33705
aF-1.27934
aF2.59304
aF2.52693
aF2.52693
aF-0.188222
aF-0.197395
aF-0.197395
aF-2.80492
aF-2.80492
aF-2.80492
aF1.046
aF1.046
aF1.046
aF-1.27934
aF-1.23412
aF-1.33705
aF2.42276
aF2.45928
aF2.39066
aF-0.188222
aF-0.197395
aF-0.244979
aF-2.72337
aF-2.76109
aF-2.76109
aF1.14794
aF1.17227
aF1.0637
aF-1.21781
aF-1.23412
aF-1.23412
aF2.59304
aF2.56729
aF2.56729
aF0.047583
aF-0.0
aF0.049958
aF-2.42276
aF-2.42276
aF-2.45928
aF1.34732
aF1.32582
aF1.27934
aF-0.996492
aF-0.956133
aF-1.02225
aF2.7886
aF2.74307
aF2.69922
aF0.188221
aF0.094952
aF0.099669
aF-2.01317
aF-2.05527
aF-2.07789
aF1.75065
aF1.71269
aF1.71969
aF-0.819867
aF-0.851966
aF-0.91795
aF2.76109
aF2.7886
aF2.74307
aF0.188221
aF0.188221
aF0.049958
aF-2.35619
aF-2.39066
aF-2.38844
aF0.753151
aF0.71883
aF0.750929
aF-1.5708
aF-1.66575
aF-1.66146
aF2.03444
aF2.07789
aF2.03444
aF-0.442374
aF-0.442374
aF-0.507099
aF-3.09401
aF-3.09163
aF-3.09617
aF0.614663
aF0.614663
aF0.614663
aF-1.42191
aF-1.48014
aF-1.48014
aF2.25972
aF2.25311
aF2.1588
aF-0.548549
aF-0.574305
aF-0.507099
aF3.14159
aF3.14159
aF3.14159
aF0.688924
aF0.682317
aF0.652847
aF-1.86225
aF-1.90747
aF-1.99365
aF1.75065
aF1.71269
aF1.66575
aF-0.817645
aF-0.819867
aF-0.856706
aF2.86329
aF2.7886
aF2.7886
aF0.244979
aF0.305879
aF0.244979
aF-2.25311
aF-2.25311
aF-2.32173
aF1.4289
aF1.43527
aF1.47584
aF-0.88848
aF-0.91795
aF-1.00748
aF2.71874
aF2.71874
aF2.69922
aF0.233743
aF0.197396
aF0.244979
aF-2.39066
aF-2.48875
aF-2.45928
aF1.14794
aF1.17227
aF1.12842
aF-1.08632
aF-1.0637
aF-1.08632
aF2.76109
aF2.74307
aF2.76109
aF0.244979
aF0.197396
aF0.197396
aF-2.11935
aF-2.1588
aF-2.11935
aF1.47584
aF1.48014
aF1.4289
aF-0.851966
aF-0.817645
aF-0.851966
aF2.89661
aF2.89661
aF2.85014
aF0.35299
aF0.336675
aF0.305879
aF-2.1451
aF-2.11935
aF-2.25972
aF1.5708
aF1.52321
aF1.47584
aF-0.785398
aF-0.819867
aF-0.847817
aF2.80492
aF2.85014
aF2.80492
aF0.380506
aF0.291457
aF0.305879
aF-1.75902
aF-1.80454
aF-1.79427
aF1.93478
aF1.89255
aF1.86225
aF-0.643501
aF-0.614663
aF-0.682316
aF3.09401
aF3.09401
aF3.04664
aF0.507098
aF0.484478
aF0.486899
aF-2.01317
aF-2.05527
aF-2.03444
aF1.75065
aF1.61622
aF1.62075
aF-0.819867
aF-0.785398
aF-0.785398
aF2.95337
aF2.95337
aF2.95337
aF0.418224
aF0.398522
aF0.418224
aF-2.07789
aF-2.1451
aF-2.1451
aF1.70632
aF1.61622
aF1.62075
aF-0.750929
aF-0.817645
aF-0.851966
aF2.9997
aF2.95337
aF2.89661
aF0.398522
aF0.398522
aF0.370891
aF-2.05527
aF-2.11935
aF-2.05527
aF1.70632
aF1.61838
aF1.67046
aF-0.851966
aF-0.88848
aF-0.881872
aF2.77761
aF2.80492
aF2.7886
aF0.244979
aF0.099669
aF0.049958
aF-2.42276
aF-2.48875
aF-2.48875
aF1.48014
aF1.43527
aF1.42191
aF-0.785398
aF-0.785398
aF-0.785398
aF3.05093
aF3.04664
aF3.04192
aF0.574305
aF0.507098
aF0.463648
aF-2.01317
aF-2.01317
aF-2.11935
aF1.61838
aF1.5708
aF1.5708
aF-0.643501
aF-0.71883
aF-0.71883
aF2.9442
aF2.90785
aF2.90785
aF0.418224
aF0.35299
aF0.370891
aF-2.07789
aF-2.11935
aF-2.11935
aF1.66575
aF1.52321
aF1.52321
aF-0.614663
aF-0.643501
aF-0.614663
aF-2.35619
aF-2.42276
aF-2.38844
a.