(lp1
F30
aF53
aF78
aF101
aF126
aF35
aF59
aF84
aF109
aF132
aF160
aF136
aF111
aF87
aF63
aF33
aF57
aF82
aF106
aF130
aF164
aF141
aF117
aF92
aF68
aF43
aF66
aF90
aF114
aF137
aF165
aF62
aF83
aF107
aF129
aF151
aF176
aF71
aF90
aF111
aF130
aF150
aF173
aF136
aF121
aF105
aF83
aF105
aF127
aF131
aF116
aF100
aF82
aF103
aF125
aF151
aF134
aF115
aF94
aF71
aF81
aF92
aF106
aF113
aF120
aF130
aF114
aF97
aF77
aF99
aF122
aF144
aF166
aF193
aF172
aF149
aF122
aF141
aF158
aF180
aF171
aF160
aF150
aF150
aF52
aF52
aF52
aF35
aF46
aF71
aF82
aF63
aF45
aF22
aF26
aF52
aF82
aF78
aF61
aF40
aF50
aF43
aF57
aF63
aF82
aF86
aF90
aF94
aF96
aF78
aF61
aF42
aF65
aF87
aF115
aF92
aF71
aF46
aF58
aF71
aF85
aF85
aF84
aF84
aF71
aF60
aF53
aF56
aF59
aF61
aF64
aF52
aF55
aF74
aF77
aF78
aF80
aF71
aF64
aF56
aF30
aF21
aF36
aF68
aF80
aF93
aF104
aF105
aF106
aF106
aF108
aF94
aF111
aF139
aF155
aF172
aF193
aF171
aF148
aF125
aF102
aF76
aF96
aF122
aF147
aF170
aF200
aF177
aF153
aF129
aF103
aF105
aF104
aF105
aF105
aF106
aF95
aF114
aF139
aF155
aF171
aF192
aF169
aF146
aF123
aF99
aF71
aF94
aF118
aF143
aF167
aF198
aF176
aF153
aF130
aF106
aF63
aF64
aF64
aF64
aF49
aF50
aF56
aF60
aF80
aF84
aF186
aF169
aF155
aF134
aF118
aF95
aF118
aF140
aF162
aF184
aF165
aF147
aF129
aF116
aF92
aF73
aF94
aF117
aF126
aF158
aF87
aF87
aF87
aF89
aF89
aF74
aF88
aF113
aF122
aF137
aF64
aF66
aF67
aF70
aF72
aF57
aF72
aF98
aF110
aF122
aF54
aF54
aF54
aF55
aF55
aF38
aF51
aF80
aF92
aF106
aF49
aF58
aF68
aF77
aF72
aF80
aF90
aF110
aF119
aF127
aF186
aF171
aF155
aF140
aF125
aF169
aF158
aF150
aF142
aF52
aF49
aF46
aF43
aF57
aF53
aF47
aF42
aF15
aF11
aF16
aF37
aF58
aF78
aF100
aF125
aF113
aF91
aF71
aF50
aF16
aF41
aF65
aF90
aF115
aF144
aF133
aF121
aF117
aF103
aF35
aF46
aF58
aF70
aF81
aF80
aF94
aF94
aF94
aF95
aF87
aF87
aF87
aF89
aF89
aF74
aF86
aF110
aF121
aF132
aF123
aF113
aF105
aF96
aF89
aF62
aF92
aF92
aF125
aF141
a.