(lp1
F30
aF53
aF78
aF101
aF126
aF35
aF59
aF84
aF109
aF132
aF160
aF136
aF111
aF87
aF63
aF33
aF57
aF82
aF106
aF130
aF164
aF141
aF117
aF92
aF68
aF43
aF66
aF90
aF114
aF137
aF165
aF62
aF83
aF107
aF129
aF151
aF176
aF71
aF90
aF111
aF130
aF150
aF173
aF136
aF121
aF105
aF83
aF105
aF127
aF131
aF116
aF100
aF82
aF103
aF125
aF151
aF134
aF115
aF94
aF71
aF81
aF92
aF106
aF113
aF120
aF130
aF114
aF97
aF77
aF99
aF122
aF144
aF166
aF193
aF172
aF149
aF122
aF141
aF158
aF180
aF171
aF160
aF150
aF150
aF52
aF52
aF52
aF35
aF46
aF71
aF82
aF63
aF45
aF22
aF26
aF52
aF82
aF78
aF61
aF40
aF50
aF43
aF57
aF63
aF82
aF86
aF90
aF94
aF96
aF78
aF61
aF42
aF65
aF87
aF115
aF92
aF71
aF46
aF58
aF71
aF85
aF85
aF84
aF84
aF71
aF60
aF53
aF56
aF59
aF61
aF64
aF52
aF55
aF74
aF77
aF78
aF80
aF71
aF64
aF56
aF30
aF21
aF36
aF68
aF80
aF93
aF104
aF105
aF106
aF106
aF108
aF94
aF111
aF139
aF155
aF172
aF193
aF171
aF148
aF125
aF102
aF76
aF96
aF122
aF147
aF170
aF200
aF177
aF153
aF129
aF103
aF105
aF104
aF105
aF105
aF106
aF95
aF114
aF139
aF155
aF171
aF192
aF169
aF146
aF123
aF99
aF71
aF94
aF118
aF143
aF167
aF198
aF176
aF153
aF130
aF106
aF63
aF64
aF64
aF64
aF49
aF50
aF56
aF60
aF80
aF84
aF186
aF169
aF155
aF134
aF118
aF95
aF118
aF140
aF162
aF184
aF165
aF147
aF129
aF116
aF92
aF73
aF94
aF117
aF126
aF158
aF87
aF87
aF87
aF89
aF89
aF74
aF88
aF113
aF122
aF137
aF64
aF66
aF67
aF70
aF72
aF57
aF72
aF98
aF110
aF122
aF54
aF54
aF54
aF55
aF55
aF38
aF51
aF80
aF92
aF106
aF49
aF58
aF68
aF77
aF72
aF80
aF90
aF110
aF119
aF127
aF186
aF171
aF155
aF140
aF125
aF169
aF158
aF150
aF142
aF52
aF49
aF46
aF43
aF57
aF53
aF47
aF42
aF15
aF11
aF16
aF37
aF58
aF78
aF100
aF125
aF113
aF91
aF71
aF50
aF16
aF41
aF65
aF90
aF115
aF144
aF133
aF121
aF117
aF103
aF35
aF46
aF58
aF70
aF81
aF80
aF94
aF94
aF94
aF95
aF87
aF87
aF87
aF89
aF89
aF74
aF86
aF110
aF121
aF132
aF123
aF113
aF105
aF96
aF89
aF62
aF92
aF92
aF125
aF141
aF167
aF150
aF134
aF111
aF133
aF155
aF182
aF158
aF134
aF104
aF126
aF148
aF175
aF160
aF143
aF122
aF129
aF136
aF146
aF151
aF156
aF162
aF146
aF130
aF111
aF160
aF145
aF131
aF114
aF134
aF155
aF181
aF158
aF134
aF106
aF127
aF149
aF174
aF161
aF160
aF130
aF136
aF141
aF149
aF164
aF180
aF200
aF178
aF156
aF129
aF43
aF54
aF64
aF82
aF84
aF86
aF89
aF73
aF60
aF45
aF64
aF84
aF108
aF83
aF59
aF31
aF53
aF74
aF99
aF85
aF71
aF54
aF54
aF56
aF59
aF43
aF56
aF71
aF85
aF87
aF89
aF90
aF78
aF66
aF53
aF72
aF88
aF112
aF88
aF64
aF37
aF57
aF78
aF100
aF91
aF81
aF71
aF68
aF65
aF62
aF50
aF62
aF75
aF90
aF96
aF101
aF108
aF89
aF73
aF55
aF76
aF97
aF123
aF99
aF75
aF48
aF67
aF86
aF109
aF109
aF108
aF106
aF94
aF83
aF71
aF57
aF66
aF74
aF82
aF91
aF99
aF111
aF90
aF71
aF49
aF71
aF93
aF122
aF101
aF82
aF59
aF66
aF74
aF83
aF91
aF100
aF110
aF89
aF71
aF49
aF45
aF58
aF73
aF89
aF90
aF92
aF91
aF79
aF68
aF56
aF74
aF91
aF113
aF88
aF64
aF38
aF58
aF79
aF103
aF92
aF82
aF69
aF66
aF63
aF61
aF43
aF58
aF73
aF87
aF92
aF96
aF101
aF85
aF68
aF49
aF71
aF92
aF118
aF96
aF74
aF47
aF54
aF75
aF91
aF96
aF100
aF108
aF88
aF73
aF54
aF77
aF98
aF123
aF102
aF80
aF54
aF66
aF78
aF92
aF96
aF101
aF108
aF91
aF75
aF57
aF80
aF100
aF127
aF106
aF83
aF58
aF70
aF82
aF98
aF36
aF49
aF63
aF78
aF76
aF73
aF71
aF59
aF48
aF36
aF58
aF79
aF103
aF80
aF57
aF28
aF49
aF70
aF91
aF83
aF74
aF64
aF61
aF57
aF52
aF64
aF77
aF91
aF70
aF49
aF24
aF49
aF71
aF98
aF81
aF64
aF44
aF47
aF52
aF55
aF61
aF66
aF73
aF60
aF37
aF17
aF40
aF63
aF91
aF50
aF65
aF80
aF97
aF98
aF99
aF99
aF86
aF75
aF61
aF82
aF101
aF127
aF102
aF78
aF52
aF71
aF91
aF116
aF116
aF116
aF116
aF104
aF92
aF79
aF98
aF118
aF139
aF116
aF92
aF64
aF84
aF106
aF129
aF120
aF109
aF94
aF87
aF82
aF77
aF93
aF111
aF132
aF109
aF84
aF57
aF79
aF100
aF125
aF47
aF56
aF65
aF75
aF77
aF79
aF80
aF68
aF56
aF44
aF64
aF84
aF108
aF83
aF60
aF31
aF52
aF73
aF98
aF89
aF80
aF71
aF66
aF61
aF59
aF73
aF89
aF108
aF84
aF62
aF36
aF59
aF81
aF108
aF98
aF88
aF75
aF73
aF72
aF68
aF82
aF97
aF114
aF90
aF68
aF42
aF64
aF85
aF113
aF103
aF92
aF78
aF75
aF72
aF71
aF82
aF94
aF106
aF85
aF65
aF42
aF66
aF82
aF116
aF95
aF75
aF50
aF58
aF66
aF77
aF88
aF98
aF111
aF89
aF69
aF45
aF68
aF91
aF119
aF96
aF74
aF49
aF60
aF71
aF83
aF87
aF92
aF97
aF80
aF63
aF44
aF67
aF89
aF115
aF92
aF70
aF44
aF57
aF70
aF84
aF91
aF97
aF106
aF85
aF67
aF43
aF66
aF88
aF115
aF92
aF70
aF43
aF54
aF54
aF86
aF94
aF101
aF110
aF91
aF73
aF54
aF75
aF95
aF126
aF106
aF84
aF58
aF68
aF78
aF88
aF96
aF106
aF114
aF92
aF73
aF50
aF73
aF95
aF122
aF106
aF88
aF67
aF72
aF77
aF83
aF96
aF111
aF127
aF105
aF82
aF58
aF79
aF101
aF130
aF120
aF110
aF96
aF91
aF87
aF81
aF97
aF113
aF130
aF108
aF85
aF59
aF80
aF103
aF130
aF116
aF100
aF52
aF69
aF86
aF105
aF105
aF103
aF102
aF90
aF78
aF65
aF86
aF108
aF132
aF109
aF85
aF57
aF76
aF95
aF118
aF121
aF123
aF125
aF113
aF94
aF77
aF96
aF117
aF141
aF117
aF92
aF64
aF81
aF99
aF120
aF112
aF102
aF91
aF88
aF85
aF82
aF96
aF112
aF131
aF109
aF85
aF60
aF82
aF106
aF130
aF125
aF101
aF83
aF85
aF89
aF90
aF103
aF117
aF134
aF113
aF89
aF64
aF87
aF110
aF138
aF121
aF102
aF79
aF89
aF99
aF111
aF123
aF134
aF149
aF127
aF105
aF78
aF101
aF124
aF150
aF138
aF125
aF110
aF111
aF112
aF114
aF129
aF143
aF162
aF140
aF117
aF89
aF111
aF132
aF158
aF146
aF132
aF116
aF117
aF118
aF118
aF133
aF149
aF167
aF144
aF122
aF95
aF118
aF139
aF164
aF160
aF155
aF150
aF141
aF133
aF125
aF143
aF161
aF184
aF160
aF138
aF110
aF130
aF150
aF172
aF163
aF153
aF141
aF137
aF134
aF132
aF148
aF164
aF183
aF160
aF137
aF111
aF131
aF151
aF175
aF164
aF151
aF137
aF135
aF133
aF130
aF146
aF161
aF181
aF158
aF135
aF108
aF129
aF150
aF174
aF163
aF151
aF137
aF134
aF131
aF127
aF143
aF157
aF174
aF152
aF130
aF103
aF127
aF146
aF175
aF160
aF143
aF123
aF126
aF128
aF130
aF147
aF162
aF183
aF161
aF137
aF111
aF130
aF150
aF172
aF163
aF153
aF140
aF138
aF139
aF141
aF157
aF175
aF196
aF174
aF151
aF125
aF146
aF165
aF190
aF179
aF167
aF152
aF151
aF150
aF151
aF169
aF187
aF204
aF190
aF175
a.