(lp0
F30.0
aF53.0
aF78.0
aF101.0
aF126.0
aF35.0
aF59.0
aF84.0
aF109.0
aF132.0
aF160.0
aF136.0
aF111.0
aF87.0
aF63.0
aF33.0
aF57.0
aF82.0
aF106.0
aF130.0
aF164.0
aF141.0
aF117.0
aF92.0
aF68.0
aF43.0
aF66.0
aF90.0
aF114.0
aF137.0
aF165.0
aF62.0
aF83.0
aF107.0
aF129.0
aF151.0
aF176.0
aF71.0
aF90.0
aF111.0
aF130.0
aF150.0
aF173.0
aF136.0
aF121.0
aF105.0
aF83.0
aF105.0
aF127.0
aF131.0
aF116.0
aF100.0
aF82.0
aF103.0
aF125.0
aF151.0
aF134.0
aF115.0
aF94.0
aF71.0
aF81.0
aF92.0
aF106.0
aF113.0
aF120.0
aF130.0
aF114.0
aF97.0
aF77.0
aF99.0
aF122.0
aF144.0
aF166.0
aF193.0
aF172.0
aF149.0
aF122.0
aF141.0
aF158.0
aF180.0
aF171.0
aF160.0
aF150.0
aF150.0
aF52.0
aF52.0
aF52.0
aF35.0
aF46.0
aF71.0
aF82.0
aF63.0
aF45.0
aF22.0
aF26.0
aF52.0
aF82.0
aF78.0
aF61.0
aF40.0
aF50.0
aF43.0
aF57.0
aF63.0
aF82.0
aF86.0
aF90.0
aF94.0
aF96.0
aF78.0
aF61.0
aF42.0
aF65.0
aF87.0
aF115.0
aF92.0
aF71.0
aF46.0
aF58.0
aF71.0
aF85.0
aF85.0
aF84.0
aF84.0
aF71.0
aF60.0
aF53.0
aF56.0
aF59.0
aF61.0
aF64.0
aF52.0
aF55.0
aF74.0
aF77.0
aF78.0
aF80.0
aF71.0
aF64.0
aF56.0
aF30.0
aF21.0
aF36.0
aF68.0
aF80.0
aF93.0
aF104.0
aF105.0
aF106.0
aF106.0
aF108.0
aF94.0
aF111.0
aF139.0
aF155.0
aF172.0
aF193.0
aF171.0
aF148.0
aF125.0
aF102.0
aF76.0
aF96.0
aF122.0
aF147.0
aF170.0
aF200.0
aF177.0
aF153.0
aF129.0
aF103.0
aF105.0
aF104.0
aF105.0
aF105.0
aF106.0
aF95.0
aF114.0
aF139.0
aF155.0
aF171.0
aF192.0
aF169.0
aF146.0
aF123.0
aF99.0
aF71.0
aF94.0
aF118.0
aF143.0
aF167.0
aF198.0
aF176.0
aF153.0
aF130.0
aF106.0
aF63.0
aF64.0
aF64.0
aF64.0
aF49.0
aF50.0
aF56.0
aF60.0
aF80.0
aF84.0
aF186.0
aF169.0
aF155.0
aF134.0
aF118.0
aF95.0
aF118.0
aF140.0
aF162.0
aF184.0
aF165.0
aF147.0
aF129.0
aF116.0
aF92.0
aF73.0
aF94.0
aF117.0
aF126.0
aF158.0
aF87.0
aF87.0
aF87.0
aF89.0
aF89.0
aF74.0
aF88.0
aF113.0
aF122.0
aF137.0
aF64.0
aF66.0
aF67.0
aF70.0
aF72.0
aF57.0
aF72.0
aF98.0
aF110.0
aF122.0
aF54.0
aF54.0
aF54.0
aF55.0
aF55.0
aF38.0
aF51.0
aF80.0
aF92.0
aF106.0
aF49.0
aF58.0
aF68.0
aF77.0
aF72.0
aF80.0
aF90.0
aF110.0
aF119.0
aF127.0
aF186.0
aF171.0
aF155.0
aF140.0
aF125.0
aF169.0
aF158.0
aF150.0
aF142.0
aF52.0
aF49.0
aF46.0
aF43.0
aF57.0
aF53.0
aF47.0
aF42.0
aF15.0
aF11.0
aF16.0
aF37.0
aF58.0
aF78.0
aF100.0
aF125.0
aF113.0
aF91.0
aF71.0
aF50.0
aF16.0
aF41.0
aF65.0
aF90.0
aF115.0
aF144.0
aF133.0
aF121.0
aF117.0
aF103.0
aF35.0
aF46.0
aF58.0
aF70.0
aF81.0
aF80.0
aF94.0
aF94.0
aF94.0
aF95.0
aF87.0
aF87.0
aF87.0
aF89.0
aF89.0
aF74.0
aF86.0
aF110.0
aF121.0
aF132.0
aF123.0
aF113.0
aF105.0
aF96.0
aF89.0
aF62.0
aF92.0
aF92.0
aF125.0
aF141.0
aF167.0
aF150.0
aF134.0
aF111.0
aF133.0
aF155.0
aF182.0
aF158.0
aF134.0
aF104.0
aF126.0
aF148.0
aF175.0
aF160.0
aF143.0
aF122.0
aF129.0
aF136.0
aF146.0
aF151.0
aF156.0
aF162.0
aF146.0
aF130.0
aF111.0
aF160.0
aF145.0
aF131.0
aF114.0
aF134.0
aF155.0
aF181.0
aF158.0
aF134.0
aF106.0
aF127.0
aF149.0
aF174.0
aF161.0
aF160.0
aF130.0
aF136.0
aF141.0
aF149.0
aF164.0
aF180.0
aF200.0
aF178.0
aF156.0
aF129.0
aF43.0
aF54.0
aF64.0
aF82.0
aF84.0
aF86.0
aF89.0
aF73.0
aF60.0
aF45.0
aF64.0
aF84.0
aF108.0
aF83.0
aF59.0
aF31.0
aF53.0
aF74.0
aF99.0
aF85.0
aF71.0
aF54.0
aF54.0
aF56.0
aF59.0
aF43.0
aF56.0
aF71.0
aF85.0
aF87.0
aF89.0
aF90.0
aF78.0
aF66.0
aF53.0
aF72.0
aF88.0
aF112.0
aF88.0
aF64.0
aF37.0
aF57.0
aF78.0
aF100.0
aF91.0
aF81.0
aF71.0
aF68.0
aF65.0
aF62.0
aF50.0
aF62.0
aF75.0
aF90.0
aF96.0
aF101.0
aF108.0
aF89.0
aF73.0
aF55.0
aF76.0
aF97.0
aF123.0
aF99.0
aF75.0
aF48.0
aF67.0
aF86.0
aF109.0
aF109.0
aF108.0
aF106.0
aF94.0
aF83.0
aF71.0
aF57.0
aF66.0
aF74.0
aF82.0
aF91.0
aF99.0
aF111.0
aF90.0
aF71.0
aF49.0
aF71.0
aF93.0
aF122.0
aF101.0
aF82.0
aF59.0
aF66.0
aF74.0
aF83.0
aF91.0
aF100.0
aF110.0
aF89.0
aF71.0
aF49.0
aF45.0
aF58.0
aF73.0
aF89.0
aF90.0
aF92.0
aF91.0
aF79.0
aF68.0
aF56.0
aF74.0
aF91.0
aF113.0
aF88.0
aF64.0
aF38.0
aF58.0
aF79.0
aF103.0
aF92.0
aF82.0
aF69.0
aF66.0
aF63.0
aF61.0
aF43.0
aF58.0
aF73.0
aF87.0
aF92.0
aF96.0
aF101.0
aF85.0
aF68.0
aF49.0
aF71.0
aF92.0
aF118.0
aF96.0
aF74.0
aF47.0
aF54.0
aF75.0
aF91.0
aF96.0
aF100.0
aF108.0
aF88.0
aF73.0
aF54.0
aF77.0
aF98.0
aF123.0
aF102.0
aF80.0
aF54.0
aF66.0
aF78.0
aF92.0
aF96.0
aF101.0
aF108.0
aF91.0
aF75.0
aF57.0
aF80.0
aF100.0
aF127.0
aF106.0
aF83.0
aF58.0
aF70.0
aF82.0
aF98.0
aF36.0
aF49.0
aF63.0
aF78.0
aF76.0
aF73.0
aF71.0
aF59.0
aF48.0
aF36.0
aF58.0
aF79.0
aF103.0
aF80.0
aF57.0
aF28.0
aF49.0
aF70.0
aF91.0
aF83.0
aF74.0
aF64.0
aF61.0
aF57.0
aF52.0
aF64.0
aF77.0
aF91.0
aF70.0
aF49.0
aF24.0
aF49.0
aF71.0
aF98.0
aF81.0
aF64.0
aF44.0
aF47.0
aF52.0
aF55.0
aF61.0
aF66.0
aF73.0
aF60.0
aF37.0
aF17.0
aF40.0
aF63.0
aF91.0
aF50.0
aF65.0
aF80.0
aF97.0
aF98.0
aF99.0
aF99.0
aF86.0
aF75.0
aF61.0
aF82.0
aF101.0
aF127.0
aF102.0
aF78.0
aF52.0
aF71.0
aF91.0
aF116.0
aF116.0
aF116.0
aF116.0
aF104.0
aF92.0
aF79.0
aF98.0
aF118.0
aF139.0
aF116.0
aF92.0
aF64.0
aF84.0
aF106.0
aF129.0
aF120.0
aF109.0
aF94.0
aF87.0
aF82.0
aF77.0
aF93.0
aF111.0
aF132.0
aF109.0
aF84.0
aF57.0
aF79.0
aF100.0
aF125.0
aF47.0
aF56.0
aF65.0
aF75.0
aF77.0
aF79.0
aF80.0
aF68.0
aF56.0
aF44.0
aF64.0
aF84.0
aF108.0
aF83.0
aF60.0
aF31.0
aF52.0
aF73.0
aF98.0
aF89.0
aF80.0
aF71.0
aF66.0
aF61.0
aF59.0
aF73.0
aF89.0
aF108.0
aF84.0
aF62.0
aF36.0
aF59.0
aF81.0
aF108.0
aF98.0
aF88.0
aF75.0
aF73.0
aF72.0
aF68.0
aF82.0
aF97.0
aF114.0
aF90.0
aF68.0
aF42.0
aF64.0
aF85.0
aF113.0
aF103.0
aF92.0
aF78.0
aF75.0
aF72.0
aF71.0
aF82.0
aF94.0
aF106.0
aF85.0
aF65.0
aF42.0
aF66.0
aF82.0
aF116.0
aF95.0
aF75.0
aF50.0
aF58.0
aF66.0
aF77.0
aF88.0
aF98.0
aF111.0
aF89.0
aF69.0
aF45.0
aF68.0
aF91.0
aF119.0
aF96.0
aF74.0
aF49.0
aF60.0
aF71.0
aF83.0
aF87.0
aF92.0
aF97.0
aF80.0
aF63.0
aF44.0
aF67.0
aF89.0
aF115.0
aF92.0
aF70.0
aF44.0
aF57.0
aF70.0
aF84.0
aF91.0
aF97.0
aF106.0
aF85.0
aF67.0
aF43.0
aF66.0
aF88.0
aF115.0
aF92.0
aF70.0
aF43.0
aF54.0
aF54.0
aF86.0
aF94.0
aF101.0
aF110.0
aF91.0
aF73.0
aF54.0
aF75.0
aF95.0
aF126.0
aF106.0
aF84.0
aF58.0
aF68.0
aF78.0
aF88.0
aF96.0
aF106.0
aF114.0
aF92.0
aF73.0
aF50.0
aF73.0
aF95.0
aF122.0
aF106.0
aF88.0
aF67.0
aF72.0
aF77.0
aF83.0
aF96.0
aF111.0
aF127.0
aF105.0
aF82.0
aF58.0
aF79.0
aF101.0
aF130.0
aF120.0
aF110.0
aF96.0
aF91.0
aF87.0
aF81.0
aF97.0
aF113.0
aF130.0
aF108.0
aF85.0
aF59.0
aF80.0
aF103.0
aF130.0
aF116.0
aF100.0
aF52.0
aF69.0
aF86.0
aF105.0
aF105.0
aF103.0
aF102.0
aF90.0
aF78.0
aF65.0
aF86.0
aF108.0
aF132.0
aF109.0
aF85.0
aF57.0
aF76.0
aF95.0
aF118.0
aF121.0
aF123.0
aF125.0
aF113.0
aF94.0
aF77.0
aF96.0
aF117.0
aF141.0
aF117.0
aF92.0
aF64.0
aF81.0
aF99.0
aF120.0
aF112.0
aF102.0
aF91.0
aF88.0
aF85.0
aF82.0
aF96.0
aF112.0
aF131.0
aF109.0
aF85.0
aF60.0
aF82.0
aF106.0
aF130.0
aF125.0
aF101.0
aF83.0
aF85.0
aF89.0
aF90.0
aF103.0
aF117.0
aF134.0
aF113.0
aF89.0
aF64.0
aF87.0
aF110.0
aF138.0
aF121.0
aF102.0
aF79.0
aF89.0
aF99.0
aF111.0
aF123.0
aF134.0
aF149.0
aF127.0
aF105.0
aF78.0
aF101.0
aF124.0
aF150.0
aF138.0
aF125.0
aF110.0
aF111.0
aF112.0
aF114.0
aF129.0
aF143.0
aF162.0
aF140.0
aF117.0
aF89.0
aF111.0
aF132.0
aF158.0
aF146.0
aF132.0
aF116.0
aF117.0
aF118.0
aF118.0
aF133.0
aF149.0
aF167.0
aF144.0
aF122.0
aF95.0
aF118.0
aF139.0
aF164.0
aF160.0
aF155.0
aF150.0
aF141.0
aF133.0
aF125.0
aF143.0
aF161.0
aF184.0
aF160.0
aF138.0
aF110.0
aF130.0
aF150.0
aF172.0
aF163.0
aF153.0
aF141.0
aF137.0
aF134.0
aF132.0
aF148.0
aF164.0
aF183.0
aF160.0
aF137.0
aF111.0
aF131.0
aF151.0
aF175.0
aF164.0
aF151.0
aF137.0
aF135.0
aF133.0
aF130.0
aF146.0
aF161.0
aF181.0
aF158.0
aF135.0
aF108.0
aF129.0
aF150.0
aF174.0
aF163.0
aF151.0
aF137.0
aF134.0
aF131.0
aF127.0
aF143.0
aF157.0
aF174.0
aF152.0
aF130.0
aF103.0
aF127.0
aF146.0
aF175.0
aF160.0
aF143.0
aF123.0
aF126.0
aF128.0
aF130.0
aF147.0
aF162.0
aF183.0
aF161.0
aF137.0
aF111.0
aF130.0
aF150.0
aF172.0
aF163.0
aF153.0
aF140.0
aF138.0
aF139.0
aF141.0
aF157.0
aF175.0
aF196.0
aF174.0
aF151.0
aF125.0
aF146.0
aF165.0
aF190.0
aF179.0
aF167.0
aF152.0
aF151.0
aF150.0
aF151.0
aF169.0
aF187.0
aF204.0
aF190.0
aF175.0
a.