(lp1
F22.976276716657239
aF25
aF23
aF24.971703565920432
aF20
aF24
aF24.971703565920432
aF25
aF23
aF25
aF23.975245647063872
aF25.066833378318851
aF23.999999999915502
aF24.067965219205075
aF23.071182642541231
aF24.082508426885049
aF25.019268612175793
aF24.115530562049699
aF24
aF23.972835423283616
aF23.000002653508815
aF24.020400518967836
aF24.999994692732393
aF24.000005307095091
aF24.000005307095091
aF23.021532326902161
aF24.020652651340662
aF24.176318828948123
aF23
aF23
aF22.688573054719594
aF21.023746992646238
aF24
aF22.122363555208914
aF22.185327939443059
aF23.05168113618117
aF25.494025827414497
aF22.455534868261267
aF25.740667904457275
aF22.360680649296967
aF22.815905739684712
aF22.822523167190923
aF22.185328528113484
aF23.334533304057203
aF24.082454921620922
aF21.920307041516537
aF22.070741061267682
aF22.798348916821478
aF21.838439243985441
aF24.176521824733683
aF22.577306370360617
aF23.426360217660253
aF21.585670546528675
aF22.070741061267682
aF21.581031633837021
aF21.385335000554555
aF23.595954025041209
aF26.190521955909453
aF23.557347762714777
aF25.077840626017817
aF24.591183348485593
aF24.511784536589907
aF23.083613294643605
aF24.999266133861127
aF24.038097317744299
aF24.804261777462173
aF23.299597947617706
aF23.393762516164379
aF23.083613552571062
aF22.835794879121917
aF23.407687289018853
aF23.076574977574666
aF23.409191478900325
aF21.585669660232348
aF23.533935076553703
aF23.141708505923951
aF24.204550578027266
aF23.399999869447917
aF23.582237991040486
aF23.759100730634437
aF24.571376463136644
aF24.163096112244411
aF23.897751454777485
aF24.081508213071164
aF22.976273242126034
aF24.999999999831342
aF26.000062444311354
aF23.251428398232665
aF31.568206770632393
aF23.768490312069694
aF24.172636978911875
aF22.778985989733215
aF22.199999382054905
aF4.8992101670668013
aF26.072500333490741
aF25
aF14.811527493548507
aF22.662711040071045
aF23.428940242890768
aF25.043963068236803
aF19.402788817485643
aF24.115534656248045
aF23.769674019699323
aF28.045193618659006
aF24.227756242052862
aF24.327832848098573
aF25.246631501212889
aF25.306908983190976
aF25.406276104338914
aF24.646892993171551
aF23.978620849314634
aF23.342235274147111
aF22.734121987984569
aF23.768489946299496
aF25.854298072646198
aF23.124524313768525
aF23.380434011443629
aF25.043960201137228
aF25.55284992405376
aF24.687423916720441
aF24.999999999831342
aF25.01962111253183
aF25.973181580565264
aF26.385596853869114
aF24.591413833692144
aF24.163096112244411
aF27.157755088508722
aF27.152901015122875
aF25.031581186202661
aF17.256937746098838
aF31.77079885134723
aF25.168432865899579
aF26.916338958380951
aF25.174439755167505
aF27.999996326606002
aF26.074296149456071
aF27.513471196234647
aF25.957093824185311
aF26.244438720113159
aF33.129410025445999
aF25.22371472444172
aF25.779741875907263
aF34.325300832305317
aF25.046792419159274
aF25.544816699386757
aF23.799635628450176
aF27.017557554600817
aF27.017557554600817
aF24.974210045789171
aF27.064572317156767
aF22.000044078312822
aF17.428225092307066
aF36.162867412011728
aF24.748736994910502
aF24.70966796929406
aF24.04163009818452
aF23.769002595057081
aF24.69748066881747
aF25.342590837961804
aF24.001826065377934
aF24.165919771074808
aF10.428947701008633
aF25.967561324618607
aF25.171814273700654
aF23.121115913848094
aF23.184366773940301
aF23.529348265439985
aF24.496094257156912
aF24.465887782445975
aF26.436447862598108
aF25.314420899040982
aF28.000003673016209
aF27.017557554600817
aF25.999999999824595
aF24.982189555327448
aF13.3833075835252
aF23.442505771955638
aF31.487042962073673
aF25.538196855179898
aF24.807141767339921
aF26.220515298828673
aF24.681894076918212
aF25.811642326260312
aF25.466240880958537
aF25.169036792099053
aF24.596747752195686
aF23.116662419412883
aF24.210660654560421
aF25
aF24.019993829055927
aF24.071945524890928
aF23.387873372729032
aF24.328783281532079
aF24.253571213904976
aF24.993901450553683
aF25.86129859524533
aF22.022715545442985
aF29.887222874464605
aF15.927920552359216
aF34.415615858815684
aF23.980399523811872
aF23.742708054707478
aF24.327832848098573
aF28.679096582834145
aF25.266630632125956
aF26.166924733037611
aF23.914002977154482
aF19.760436970041376
aF29.684856951511136
aF23.2358114409368
aF24.804263125733019
aF23.179395531473322
aF21.828206498379938
aF22.798348916821478
aF23.370961634991904
aF21.832024097991312
aF24.066058711542944
aF23.41018870397177
aF17.616046614422878
aF29.998691042631052
aF23.325604893384451
aF21.073673974854067
aF23.211792511923605
aF9
aF32
aF26.966313683257784
aF24.97640891979475
aF24.974210045789171
aF25.065031456086203
aF23.999999999838089
aF24.369584447648126
aF22.627416535811442
aF28.693539139411396
aF16.638994589734022
aF30.670696429089627
aF24.637983535731443
aF25.079274286147974
aF23.02172886620242
aF27.157755088508722
aF24.081508213071164
aF23.582417277304263
aF19.952133676877725
aF31.75550128678724
aF21.562542337154845
aF24.115534656248045
aF24.573534644157093
aF24.97640094226735
aF25.973178447620736
aF24.020399994695818
aF23.999999999838089
aF23.164169347574148
aF21.400000043599814
aF34.297564483831081
aF23.310418878689866
aF21.806081827331923
aF22.801589984526373
aF24.697479986891587
aF24.165920105992207
aF24.667473759474937
aF17.741771411874922
aF23.259358164171712
aF24.156550889110203
aF26.193888921451197
aF23.409191841522393
aF24.302063604061235
aF24.32608935725608
aF23.937944455152063
aF24.804261777462173
aF24.849854471337281
aF23.527114566012614
aF4.3656440462660608
aF26.385605654575848
aF24.257112579685337
aF24.351545648318908
aF26.663991048582407
aF22.117795589637744
aF10.03745864729804
aF22.189333338040761
aF23.482795258007737
aF23.334521388012462
aF23.763375357360641
aF23.525951982861667
aF31.048181687293436
aF23.283411497338548
aF21.785604426008565
aF23.213731388270688
aF24.697768572356861
aF22.822523167190923
aF24.573531788121379
aF23.677839988944047
aF16.207999627185238
aF26.03046755904154
aF22.783704405176586
aF23.702318345079576
aF23.255109181839462
aF25.018746187695104
aF24
aF25
aF25
aF25
aF23.706310705869701
aF23.255099925252306
aF20.299906901030543
aF26.925782103651969
aF23.323035976461448
aF25.495061193205846
aF25.051813173075239
aF24.172238520752671
aF24.591412474393302
aF17.871683979124818
aF24.669156321004671
aF24.999999999831342
aF23.891880828538824
aF25.019620750937687
aF25.000003673036446
aF24.974213058235829
aF25.999999999824595
aF25.066836348372494
aF23.972831625411281
aF24.400879178388973
aF23.310418878689866
aF28.021239907700195
aF23.70231998805837
aF25.494920286761314
aF24.573534644157093
aF25.065123898775674
aF25.275663221385344
aF22.794177521199728
aF24.32878435589793
aF30.471501702603366
aF34.459420353170103
aF0.70710666564709435
aF44.54772756137023
aF23.978612658475939
aF24.041630329263405
aF24.646892993171551
aF22.583356537190149
aF26.870064034908843
aF23.387869705527812
aF24.163095987895076
aF23.259358053548262
aF24.119876638281163
aF24.067965219205075
aF24.020400518967836
aF24.140393542846976
aF23.768491361648255
aF23.689001196091009
aF23.423947549103531
aF26.16296042877488
aF24.748740516325128
aF25.930682160689209
aF25.908909392353095
aF26.239261239860625
aF25.46624346196413
aF24.511688163162621
aF25.478255088894141
aF25.533797345446857
aF25.587603472881224
aF24.929096100363836
aF24.149533807275574
aF24.176521824733683
aF22.794646235693353
aF25.757287991541435
aF21.925220799061542
aF23.68744419677477
aF23.68744419677477
aF23.000002653508815
aF24.020400518967836
aF23.02153235985406
aF23.211916711905769
aF23.754896473812941
aF21.902109452228178
aF23.796495650286701
aF2.1828220231330304
aF46.518341548229117
aF26.66348033588989
aF24.511688163162621
aF24.496100395177709
aF23.393768235851173
aF24.041630329263405
aF24.835030771436276
aF22.796267967818828
aF23.084626255355147
aF23.407686624560675
aF23.337819822480018
aF24.165920105992207
aF25.043963068236803
aF25.019271594523762
aF25.077003247593616
aF25.171816939859788
aF26.162951418534195
aF26.719307111285751
aF23.844489630067962
aF25.55104884338629
aF23.475031696197554
aF24.396921188211834
aF23.57475877939487
aF24.928807179959158
aF24.081509258077144
aF23.190556270457645
aF24.591182131121585
aF23.702320736356118
aF24.156547950964413
aF25.219222890333644
aF25.110438306154578
aF24.929096100363836
aF23.709961833160918
aF26.074296149456071
aF25.077003247593616
aF24.940179334799129
aF22.9789198842019
aF26.574857721802804
aF21.448434875808694
aF25.031581186202661
aF25.066836348372494
aF24.020399994695818
aF25.043957827520977
aF25.057156500457332
aF24.125671166926956
aF23.893634139492629
aF20.568367448022407
aF25.110437475175559
aF23.999994692735914
aF24.019992899283334
aF19.009222308539684
aF24.385679637508098
aF24.697768572356861
aF22.868150040470994
aF24.690125854603252
aF25.97057226073068
aF25.989763082009969
aF26.117273682497711
aF25.176095452990243
aF25.000007346241549
aF14.142135392651873
aF25.05977471501323
aF25.55284992405376
aF23.310418088506268
aF24.738633753638442
aF24.505449602874627
aF22.801854530784336
aF24.660944756200436
aF23.299596459967823
aF24.748746866416042
aF22.463828992318522
aF22.846855959086437
aF23.063486483987706
aF24.460749400509503
aF24.06993476878225
aF23.121124512040144
aF24.18526360558057
aF23.595954191516348
aF25.516209906007504
aF17.979625991080063
aF30.955164920213729
aF21.9750984335423
aF24.186387528295505
aF24.596747752307177
aF25.066834186487544
aF22.322686700790772
aF24.697175266504907
aF25.254566066828776
aF24.302063604061235
aF22.846856443037645
aF23.380429735029185
aF23.124533501307617
aF23.133410741050756
aF23.574758395089077
aF22.991208815136936
aF22
aF22.022664184265341
aF24.924138519665071
aF26.902959641836524
aF23.595954025041209
aF23.595954025041209
aF24.981997525762118
aF25.298221281120963
aF24.351545523076595
aF22.439147815969907
aF24.672909582045939
aF21.925222574005595
aF24.129458452522137
aF22.195294807973795
aF24.749319932782544
aF7.9900188691134177
aF22.9789198842019
aF25.670919589383622
aF22.794645820207364
aF23.980399523811872
aF25.066836348372494
aF23.975244535906398
aF25.043957827520977
aF24.591413833692144
aF24.57628431075296
aF23.355669592853971
aF23.283419061446125
aF22.106940406231452
aF24.257173556937111
aF24.176319293685232
aF22.203153551439989
aF23.287321734173165
aF23.69937533545972
aF22.283439880964558
aF25.485188278335485
aF24.163096112244411
aF24.591413833692144
aF22.203603310993245
aF28.156618732865113
aF25.031585314083131
aF23.393768235851173
aF24.921081716415035
aF24.120323717840925
aF22.711449792202398
aF24.511688163162621
aF23.337819630206159
aF24.137454474715582
aF22.615654329704235
aF25.305399598352341
aF23.334526953966289
aF22.749470797661026
aF21.838439243985441
aF23.040883479709223
aF24.068383385604267
aF22.796267967818828
aF22.798350688892622
aF12.205226109285544
aF37.386685029919583
aF22.469753932128221
aF23.525957328391293
aF24.273826015193375
aF21.587033144816083
aF24.205056703122651
aF22.627423347832327
aF15.556355536038135
aF23.769674138210174
aF20.858064079938398
aF21.9342212228877
aF24.469836964044678
aF23.397615375909467
aF22.463827552724933
aF24.176320807025384
aF24.172238520752671
aF23.699376310502821
aF22.221570981821792
aF25.46624346196413
aF21.572775466835068
aF22.671373177629178
aF24.041636910191166
aF22.765440176586146
aF24.024167713134009
aF21.167961100241499
aF23.030143204913394
aF22.794175933246727
aF25.012242457440006
aF23.409191216739082
aF24.181203744604364
aF24.172238520752671
aF18.838317391886271
aF19.622498418204302
aF25.541696194955311
aF26.053886675032281
aF24.365932139677668
aF23.08486131384166
aF27.152903266620438
aF27.152903266620438
aF26.832815729789647
aF25.488205919720688
aF25.97057226073068
aF24.544606141014356
aF23.664363163703435
aF23.259358053548262
aF22.968008557756381
aF23.02153235985406
aF23.999999999915502
aF25.188460146723699
aF24.186387210400319
aF22.402403544841938
aF25.295404383325891
aF24.697480479560586
aF25.62575372622068
aF26.018325867054816
aF25.306910969500777
aF25.173003322905341
aF23.297408548488253
aF24.693240164838176
aF23.323037369576802
aF23.583298959591918
aF23.234913100367027
aF23.702318345079576
aF25.273945150008526
aF22.09051855448061
aF23.071178692132424
aF24.029132725310753
aF24.027352791501713
aF17.685553573870965
aF23.165660959693071
aF26.445792690019907
aF24.3245713189391
aF23.754092276645093
aF24.496100395177709
aF24.42457125864658
aF17.616046614422878
aF30.479355885856886
aF22.569917090970634
aF23.116662419412883
aF23.193102438363116
aF22.359896800288222
aF24.176316308229339
aF24.120323717840925
aF23.334523432537424
aF23.334523663616313
aF17.968807700700214
aF28.924679093257563
aF24.000003673043192
aF25.542666712652885
aF23.70649362917964
aF25.059176187017741
aF24.543616483227797
aF22.402403544841938
aF23.240746932246289
aF24.999992039142601
aF24.020400518967836
aF22.070228900977526
aF22.956571336422957
aF23.310860304644059
aF25.156302806240738
aF23.999999999838089
aF24.999996326626238
aF24.974213058235829
aF25.051814865171785
aF23.287316091432324
aF24.57628431075296
aF23.55735112331751
aF23.310418346736796
aF22.778986355977267
aF23.086013875291268
aF23.929838611331494
aF23.180823910899356
aF23.320961039330793
aF26.593949947966998
aF21.951060293307719
aF23.735010264354866
aF24.591181960133955
aF27.711917113994843
aF24.99615426241224
aF26.451063648170678
aF24.324572808721012
aF21.821477751359463
aF21.537164633668961
aF26.09683215037488
aF23.338899399429632
aF24.783398449078646
aF22.313271696188451
aF25.0192682743481
aF23.259358053548262
aF25.397014127945617
aF24.149537677093377
aF25.631663937596812
aF25.625956696464282
aF23.380429735029185
aF19.0884953317093
aF29.063691924792927
aF24.982189555327448
aF25.051814865171785
aF24.115529733780367
aF23.259358038001277
aF23.255107665436658
aF23.310861081672851
aF22.968011627606828
aF25.3167713023463
aF23.000005307098611
aF23.021240773042315
aF24.149534681576352
aF23.706493427875341
aF23.259358053548262
aF24.690125854603252
aF24.681894991213696
aF25.579398635331518
aF24.507305141970804
aF25.446313855000426
aF24.179491616835907
aF21.834183832096031
aF24.041630329263405
aF22.62741699796922
aF24.122289751575224
aF22.798350688892622
aF22.796267967818828
aF23.995886360790443
aF22.791459752856497
aF22.313277013118949
aF27.843088682351347
aF24.15654908722178
aF25.989763082009969
aF25.079274745684717
aF26.018589634861264
aF25.000003673036446
aF9.0993459299943247
aF24.937740387678161
aF23.283419616264936
aF24.137235079370686
aF23.083611887131269
aF24.328783281532079
aF22.791459752856497
aF22.050273847633839
aF24.968692617368745
aF27.77804840921695
aF25.488205919720688
aF25.043957827520977
aF26.162140706469952
aF24.173047278097766
aF25.077004254150552
aF23.699376310502821
aF24.149532436718133
aF23.211797717972331
aF23.654863524640049
aF23.844488953477786
aF24.365941737067075
aF23.925270377028255
aF15.934325235933716
aF30
aF26.127605414407139
aF23.796510478644741
aF21.951062101107947
aF25.295849207050011
aF25.29540338146861
aF25.631582431165267
aF23.699376310502821
aF24.08789361654226
aF23.68744641020988
aF23.986690879391602
aF23.796510478644741
aF23.829944443262548
aF23
aF23.069097373157522
aF22.745535937223302
aF26.183029545407926
aF23.769002595057081
aF23.754898701628555
aF26.38560328131566
aF25.491175516896561
aF22.8215745371545
aF23.283423969930556
aF22.328215043154344
aF25.246631501212889
aF24.029132725310753
aF24.029132725310753
aF24.709673667217046
aF23.529347867995284
aF22.555812964970215
aF22.070741061267682
aF26.24235526433386
aF23.738035005082473
aF22.463827552724933
aF25.553289730351736
aF25.55284992405376
aF23.685350414763398
aF24.041439714252363
aF22.785609139285562
aF25.709878676575393
aF24.176316308229339
aF21.616475893206793
aF24.989605014219869
aF23.337820410827028
aF22.359896800288222
aF23.141704824666849
aF25.012242457440006
aF23.370955806443707
aF23.407686624560675
aF21.843300799499694
aF0
aF0
aF24.347536362252296
aF24.999266133861127
aF22.463829806292562
aF23.518016466556304
aF24.740961335044716
aF19.748677454599303
aF20.69677213865123
aF20.208107258722272
aF26.671796794291936
aF22.807888937963465
aF25.938375241916027
aF23.211911740444304
aF25.077840626017817
aF24.165920105992207
aF24.544611466150712
aF22.434283590772992
aF22.223905896428729
aF24.965051533961081
aF23.852108243375795
aF23.512661598726226
aF23.014098311954523
aF22.971304248701077
aF21.97509913800998
aF23
aF23.334526953966289
aF26.716481150587093
aF21.166223283521255
aF25.478255088894141
aF24.511294178540563
aF24.738633753638442
aF21.440146050278461
aF21.581889722838426
aF23.836238491786638
aF23.76849120313129
aF24.001826065377934
aF22.313277805915103
aF21.496046039960284
aF22.172785375890605
aF25.456242428587998
aF24.15654908722178
aF24.163096112244411
aF28.596837318507347
aF25.491175021049703
aF22.360679774997561
aF27.152903266620438
aF11.641703465444397
aF22.613976503819998
aF22.765444583991624
aF23.380434011443629
aF23.954706230522245
aF23.754898701628555
aF21.343134594677409
aF23.529347259880808
aF24.885909143871011
aF23.333881220450195
aF25.455856822640918
aF23.978620849314634
aF24.713072367488884
aF24.029131443579956
aF21.824724147318129
aF23.999999999838089
aF28.000007346221313
aF25.077004254150552
aF25.051814865171785
aF25.043957827520977
aF24.573537479062249
aF24.115530340001285
aF22.878837558215537
aF24.115530340001285
aF23.086013875291268
aF24.163094619679551
aF24.019992899283334
aF24.18526360558057
aF24.172637428393053
aF26.142971737685532
aF25.173001821945519
aF25.020095993725491
aF26.074296149456071
aF20.609419145054506
aF28.28897181077101
aF23.719991397093381
aF22.436704046239779
aF23.654869240256446
aF24.365936194897344
aF24.111466754261006
aF24.999992039142601
aF23.99999734632571
aF24.029131696890481
aF24.066059934324102
aF25.466241168606096
aF24.326092313722707
aF27.77695569407647
aF25.956103069115464
aF26.169627802221157
aF26.166926166989242
aF25.031585314083131
aF23.442504880042371
aF22.615653361779273
aF24.124823323691146
aF23.738035005082473
aF24.72489904262612
aF23.409191216739082
aF23.407687289018853
aF24.496099190816814
aF21.828206498379938
aF11.111959390766838
aF40.745991296102694
aF22.798350151135736
aF26.040283830536296
aF24.324472861099697
aF25.176094377566496
aF22.872190546494814
aF21.246120576166248
aF26.587624379856717
aF23.234913100367027
aF25.169036792099053
aF22.752439233181558
aF23.768491335263018
aF23.995886360790443
aF23.533936389220884
aF23.283413379906683
aF26.854100178737205
aF24.017635651970757
aF25.077840626017817
aF25.077840626017817
aF26.400128012586308
aF24.176320807025384
aF24.591412474393302
aF25.059175671771925
aF23.717085770326392
aF24.140389814204696
aF24.302069305895557
aF23.768491335263018
aF24.011027287114285
aF22.5533557998506
aF24.176315583120612
aF23.844489630067962
aF25.238858928233487
aF25.98888743658306
aF21.995704451760094
aF27.07018967826146
aF23.393768235851173
aF23.51802106325335
aF22.706845382729721
aF22.547009913876188
aF23.768492221200809
aF22.798334235792471
aF24.398739074623197
aF22.125143233096825
aF24.021194990517738
aF24.185016564674477
aF24.396920008732728
aF20.241743502877444
aF25.999996326619492
aF24.999996326626238
aF24.020399994695818
aF22.627416766890331
aF24.660930863219605
aF23.393768235851173
aF24.328783281532079
aF23.077338244038877
aF23.7540954429072
aF25.190832108419205
aF22.097745733263658
aF23.083613552571062
aF24.327835754142054
aF24.511687046222672
aF25.478257547520599
aF25.604752177717685
aF25.275663221385344
aF24.981990556447201
aF22.799999956482552
aF23.399999869447917
aF23.932352829730668
aF23.02153235985406
aF22.022664200740287
aF23.069097060091298
aF23.310860304644059
aF22.82521781438372
aF21.936657049212887
aF22.845288915435596
aF24.163096112244411
aF24.962058393450025
aF26.300868854779178
aF23.165664045261014
aF26.109405743453266
aF23.334523663616313
aF23.345031591659975
aF23.334523432537424
aF23.334520666942979
aF23.342235029545449
aF22.547009913876188
aF22.355828742915062
aF21.931477133421282
aF23.234912402882465
aF23.699377856718986
aF22.922336027943437
aF24.149990180810008
aF25.048687227396723
aF25.040986251985153
aF23.021684067872965
aF24.748736994910502
aF22.565239142914152
aF24.804264880158918
aF23.275633946507448
aF23.314544821624889
aF22.547009913876188
aF23.234912402882465
aF23.234912402882465
aF22.45879922425015
aF22.825218234375718
aF24.172236295944828
aF24.176315583120612
aF26.166926166989242
aF20.22194188299525
aF28.063438534632617
aF22.917309222782457
aF22.765444583991624
aF19.943281917285233
aF23.738035005082473
aF23.406691472869976
aF22.794175933246727
aF24.906750112072903
aF19.402849757794328
aF25.174441085203316
aF22.627423347832327
aF23.329879782809968
aF24.625082599969748
aF26.166924733037611
aF24.082509091845289
aF25.176094377566496
aF23.199999717137324
aF22.627416766890331
aF23.334523663616313
aF22.070228900977526
aF24.173046447373817
aF22.185328528113484
aF22.436702783568059
aF23.310418346736796
aF21.46541780304738
aF22.807898650745241
aF23.259358038001277
aF24.591181960133955
aF24.954518194603367
aF24.924137046690497
aF22.999999999844835
aF21.199999825930618
aF24.599999695378656
aF23.32987753623356
aF22.203153551439989
aF23.533935076553703
aF21.564671562312391
aF23.234912402882465
aF20.611527286066149
aF22.81655322292206
aF21.951058612032455
aF23.31085694233121
aF23.310419395133202
aF24.905877050980063
aF24.982193203520175
aF0
aF22.137922441827694
aF22.778986355977267
aF21.962018520438185
aF22.533815113555665
aF22.627423347832327
aF23.2358114409368
a.