(lp1
F53
aF78
aF101
aF126
aF146
aF59
aF84
aF109
aF132
aF157
aF136
aF111
aF87
aF63
aF40
aF57
aF82
aF106
aF130
aF154
aF141
aF117
aF92
aF68
aF44
aF66
aF90
aF114
aF137
aF160
aF150
aF83
aF107
aF129
aF151
aF174
aF181
aF90
aF111
aF130
aF150
aF170
aF151
aF121
aF105
aF89
aF105
aF127
aF148
aF116
aF100
aF85
aF103
aF125
aF146
aF134
aF115
aF94
aF75
aF81
aF92
aF103
aF113
aF120
aF127
aF114
aF97
aF82
aF99
aF122
aF144
aF166
aF188
aF172
aF149
aF126
aF141
aF159
aF177
aF171
aF160
aF150
aF150
aF152
aF52
aF52
aF35
aF45
aF71
aF80
aF63
aF45
aF27
aF26
aF52
aF77
aF78
aF61
aF43
aF50
aF43
aF55
aF63
aF82
aF86
aF90
aF94
aF98
aF78
aF61
aF45
aF65
aF87
aF111
aF92
aF71
aF49
aF58
aF71
aF84
aF85
aF84
aF84
aF71
aF60
aF50
aF56
aF59
aF61
aF64
aF51
aF55
aF74
aF77
aF78
aF80
aF71
aF64
aF56
aF30
aF22
aF36
aF68
aF80
aF93
aF108
aF105
aF106
aF106
aF108
aF96
aF111
aF139
aF155
aF172
aF187
aF171
aF148
aF125
aF102
aF80
aF96
aF122
aF147
aF170
aF193
aF177
aF153
aF129
aF103
aF78
aF104
aF105
aF105
aF106
aF94
aF114
aF139
aF155
aF171
aF188
aF169
aF146
aF123
aF99
aF77
aF94
aF118
aF143
aF167
aF191
aF176
aF153
aF130
aF106
aF82
aF64
aF64
aF64
aF49
aF50
aF56
aF60
aF80
aF84
aF87
aF169
aF155
aF134
aF118
aF99
aF118
aF139
aF162
aF184
aF205
aF147
aF129
aF116
aF92
aF75
aF94
aF117
aF126
aF158
aF185
aF87
aF87
aF89
aF89
aF77
aF88
aF113
aF122
aF137
aF150
aF66
aF67
aF70
aF72
aF59
aF72
aF98
aF110
aF122
aF133
aF54
aF54
aF55
aF55
aF38
aF51
aF80
aF92
aF106
aF117
aF58
aF68
aF77
aF72
aF82
aF90
aF110
aF118
aF127
aF135
aF171
aF155
aF140
aF126
aF123
aF158
aF150
aF142
aF127
aF49
aF48
aF43
aF57
aF53
aF47
aF42
aF15
aF11
aF5
aF37
aF58
aF78
aF100
aF121
aF113
aF91
aF71
aF50
aF29
aF41
aF65
aF90
aF115
aF140
aF133
aF121
aF117
aF103
aF91
aF46
aF58
aF70
aF81
aF80
aF94
aF94
aF94
aF95
aF94
aF87
aF87
aF89
aF89
aF77
aF86
aF110
aF121
aF132
aF143
aF113
aF105
aF96
aF88
aF66
aF92
aF92
aF125
aF141
aF157
aF150
aF134
aF116
aF133
aF155
aF176
aF158
aF134
aF110
aF126
aF148
aF170
aF160
aF143
aF126
aF129
aF136
aF144
aF151
aF156
aF161
aF146
aF130
aF115
aF133
aF145
aF131
aF116
aF134
aF155
aF176
aF158
aF134
aF111
aF127
aF149
aF169
aF161
aF160
aF133
aF136
aF141
aF146
aF164
aF180
aF196
aF178
aF156
aF134
aF152
aF53
aF64
aF76
aF84
aF87
aF89
aF73
aF60
aF47
aF64
aF84
aF103
aF83
aF59
aF36
aF53
aF74
aF96
aF85
aF71
aF56
aF54
aF56
aF58
aF66
aF56
aF71
aF83
aF87
aF89
aF90
aF78
aF66
aF56
aF72
aF88
aF109
aF88
aF64
aF45
aF57
aF78
aF97
aF91
aF81
aF71
aF68
aF65
aF63
aF71
aF62
aF75
aF87
aF96
aF101
aF107
aF89
aF73
aF57
aF76
aF97
aF119
aF99
aF75
aF52
aF67
aF86
aF106
aF109
aF108
aF108
aF94
aF83
aF73
aF90
aF66
aF74
aF82
aF91
aF99
aF109
aF90
aF71
aF52
aF71
aF93
aF118
aF101
aF82
aF63
aF66
aF74
aF82
aF91
aF100
aF109
aF89
aF71
aF52
aF57
aF58
aF73
aF87
aF90
aF92
aF92
aF79
aF68
aF57
aF74
aF91
aF109
aF88
aF64
aF42
aF58
aF79
aF99
aF92
aF82
aF71
aF66
aF63
aF61
aF76
aF58
aF73
aF87
aF92
aF96
aF99
aF85
aF68
aF52
aF71
aF92
aF115
aF96
aF74
aF52
aF54
aF75
aF87
aF96
aF100
aF105
aF89
aF73
aF63
aF77
aF97
aF120
aF102
aF80
aF59
aF66
aF78
aF89
aF96
aF101
aF106
aF91
aF75
aF61
aF80
aF100
aF123
aF106
aF83
aF61
aF70
aF82
aF92
aF103
aF49
aF63
aF77
aF76
aF73
aF70
aF59
aF48
aF38
aF58
aF79
aF100
aF80
aF57
aF33
aF49
aF70
aF89
aF83
aF74
aF65
aF61
aF57
aF54
aF64
aF77
aF89
aF70
aF49
aF28
aF49
aF71
aF94
aF81
aF64
aF51
aF47
aF52
aF56
aF61
aF66
aF71
aF60
aF37
aF21
aF40
aF63
aF85
aF70
aF65
aF80
aF96
aF98
aF99
aF98
aF86
aF75
aF63
aF82
aF101
aF122
aF102
aF78
aF56
aF71
aF91
aF112
aF116
aF117
aF116
aF104
aF92
aF81
aF98
aF118
aF136
aF116
aF92
aF69
aF84
aF106
aF125
aF120
aF109
aF97
aF87
aF82
aF78
aF93
aF111
aF130
aF109
aF84
aF62
aF79
aF100
aF122
aF115
aF56
aF65
aF73
aF77
aF79
aF80
aF68
aF56
aF46
aF64
aF84
aF103
aF83
aF60
aF37
aF52
aF73
aF94
aF89
aF80
aF71
aF66
aF61
aF58
aF73
aF89
aF105
aF84
aF62
aF40
aF59
aF81
aF103
aF98
aF88
aF78
aF73
aF72
aF71
aF82
aF97
aF113
aF90
aF68
aF45
aF64
aF85
aF109
aF103
aF92
aF80
aF75
aF72
aF70
aF82
aF94
aF106
aF85
aF65
aF45
aF66
aF82
aF112
aF95
aF75
aF56
aF58
aF66
aF75
aF88
aF98
aF109
aF89
aF69
aF49
aF68
aF91
aF114
aF96
aF74
aF52
aF60
aF71
aF82
aF87
aF91
aF96
aF80
aF63
aF46
aF67
aF89
aF111
aF92
aF70
aF49
aF57
aF70
aF81
aF91
aF97
aF103
aF85
aF67
aF47
aF66
aF88
aF111
aF92
aF70
aF48
aF54
aF54
aF54
aF94
aF101
aF109
aF91
aF73
aF59
aF75
aF95
aF122
aF106
aF84
aF63
aF68
aF78
aF89
aF96
aF106
aF113
aF92
aF73
aF54
aF73
aF95
aF118
aF106
aF88
aF73
aF72
aF77
aF83
aF96
aF111
aF124
aF105
aF82
aF62
aF79
aF101
aF126
aF120
aF110
aF98
aF91
aF87
aF84
aF97
aF113
aF127
aF108
aF85
aF63
aF80
aF103
aF127
aF116
aF100
aF84
aF69
aF86
aF101
aF105
aF103
aF101
aF90
aF78
aF67
aF86
aF108
aF129
aF109
aF85
aF61
aF76
aF95
aF115
aF121
aF123
aF125
aF113
aF94
aF81
aF96
aF117
aF137
aF117
aF92
aF68
aF81
aF99
aF118
aF112
aF102
aF92
aF88
aF85
aF83
aF96
aF112
aF127
aF109
aF85
aF63
aF82
aF105
aF127
aF125
aF101
aF87
aF85
aF89
aF92
aF103
aF117
aF132
aF113
aF89
aF69
aF87
aF110
aF133
aF121
aF102
aF84
aF89
aF99
aF110
aF123
aF134
aF146
aF127
aF105
aF82
aF101
aF124
aF146
aF138
aF125
aF111
aF111
aF112
aF114
aF129
aF143
aF157
aF140
aF117
aF94
aF111
aF132
aF155
aF146
aF132
aF121
aF117
aF118
aF119
aF133
aF149
aF164
aF144
aF122
aF99
aF118
aF139
aF161
aF160
aF155
aF150
aF141
aF133
aF126
aF143
aF161
aF179
aF161
aF138
aF115
aF130
aF150
aF169
aF163
aF153
aF143
aF137
aF134
aF131
aF148
aF164
aF179
aF160
aF137
aF115
aF131
aF151
aF172
aF164
aF151
aF139
aF135
aF133
aF132
aF146
aF161
aF177
aF158
aF135
aF113
aF129
aF150
aF171
aF163
aF151
aF139
aF134
aF131
aF129
aF143
aF157
aF169
aF152
aF130
aF109
aF127
aF146
aF171
aF160
aF143
aF125
aF126
aF128
aF131
aF147
aF162
aF178
aF161
aF137
aF115
aF130
aF150
aF169
aF163
aF153
aF142
aF138
aF139
aF139
aF157
aF175
aF192
aF174
aF151
aF130
aF146
aF165
aF186
aF179
aF167
aF155
aF151
aF150
aF150
aF169
aF187
aF204
aF190
aF175
aF159
a.