(lp1
F53
aF78
aF101
aF126
aF146
aF59
aF84
aF109
aF132
aF157
aF136
aF111
aF87
aF63
aF40
aF57
aF82
aF106
aF130
aF154
aF141
aF117
aF92
aF68
aF44
aF66
aF90
aF114
aF137
aF160
aF150
aF83
aF107
aF129
aF151
aF174
aF181
aF90
aF111
aF130
aF150
aF170
aF151
aF121
aF105
aF89
aF105
aF127
aF148
aF116
aF100
aF85
aF103
aF125
aF146
aF134
aF115
aF94
aF75
aF81
aF92
aF103
aF113
aF120
aF127
aF114
aF97
aF82
aF99
aF122
aF144
aF166
aF188
aF172
aF149
aF126
aF141
aF159
aF177
aF171
aF160
aF150
aF150
aF152
aF52
aF52
aF35
aF45
aF71
aF80
aF63
aF45
aF27
aF26
aF52
aF77
aF78
aF61
aF43
aF50
aF43
aF55
aF63
aF82
aF86
aF90
aF94
aF98
aF78
aF61
aF45
aF65
aF87
aF111
aF92
aF71
aF49
aF58
aF71
aF84
aF85
aF84
aF84
aF71
aF60
aF50
aF56
aF59
aF61
aF64
aF51
aF55
aF74
aF77
aF78
aF80
aF71
aF64
aF56
aF30
aF22
aF36
aF68
aF80
aF93
aF108
aF105
aF106
aF106
aF108
aF96
aF111
aF139
aF155
aF172
aF187
aF171
aF148
aF125
aF102
aF80
aF96
aF122
aF147
aF170
aF193
aF177
aF153
aF129
aF103
aF78
aF104
aF105
aF105
aF106
aF94
aF114
aF139
aF155
aF171
aF188
aF169
aF146
aF123
aF99
aF77
aF94
aF118
aF143
aF167
aF191
aF176
aF153
aF130
aF106
aF82
aF64
aF64
aF64
aF49
aF50
aF56
aF60
aF80
aF84
aF87
aF169
aF155
aF134
aF118
aF99
aF118
aF139
aF162
aF184
aF205
aF147
aF129
aF116
aF92
aF75
aF94
aF117
aF126
aF158
aF185
aF87
aF87
aF89
aF89
aF77
aF88
aF113
aF122
aF137
aF150
aF66
aF67
aF70
aF72
aF59
aF72
aF98
aF110
aF122
aF133
aF54
aF54
aF55
aF55
aF38
aF51
aF80
aF92
aF106
aF117
aF58
aF68
aF77
aF72
aF82
aF90
aF110
aF118
aF127
aF135
aF171
aF155
aF140
aF126
aF123
aF158
aF150
aF142
aF127
aF49
aF48
aF43
aF57
aF53
aF47
aF42
aF15
aF11
aF5
aF37
aF58
aF78
aF100
aF121
aF113
aF91
aF71
aF50
aF29
aF41
aF65
aF90
aF115
aF140
aF133
aF121
aF117
aF103
aF91
aF46
aF58
aF70
aF81
aF80
aF94
aF94
aF94
aF95
aF94
aF87
aF87
aF89
aF89
aF77
aF86
aF110
aF121
aF132
aF143
aF113
aF105
aF96
aF88
aF66
aF92
aF92
aF125
aF141
aF157
a.