(lp1
F28
aF28
aF27
aF26
aF26
aF21
aF20
aF20
aF22
aF22
aF20
aF20
aF22
aF22
aF24
aF24
aF26
aF27
aF30
aF30
aF40
aF41
aF42
aF40
aF42
aF51
aF52
aF53
aF56
aF57
aF60
aF57
aF56
aF57
aF54
aF51
aF51
aF56
aF68
aF83
aF95
aF105
aF115
aF56
aF74
aF92
aF110
aF107
aF101
aF68
aF87
aF103
aF124
aF119
aF116
aF110
aF97
aF83
aF67
aF50
aF73
aF95
aF124
aF102
aF78
aF51
aF70
aF86
aF105
aF98
aF95
aF87
aF80
aF73
aF68
aF63
aF59
aF73
aF88
aF105
aF83
aF61
aF35
aF61
aF80
aF103
aF128
aF160
aF139
aF115
aF90
aF105
aF119
aF135
aF138
aF140
aF143
aF125
aF110
aF91
aF114
aF138
aF163
aF140
aF116
aF92
aF68
aF43
aF12
aF30
aF48
aF68
aF64
aF58
aF56
aF44
aF34
aF26
aF48
aF70
aF96
aF71
aF46
aF17
aF40
aF62
aF34
aF61
aF88
aF113
aF130
aF170
aF145
aF119
aF94
aF66
aF36
aF62
aF87
aF112
aF138
aF169
aF148
aF127
aF105
aF83
aF22
aF49
aF76
aF101
aF128
aF152
aF143
aF120
aF101
aF83
aF60
aF69
aF78
aF89
aF96
aF104
aF104
aF104
aF101
aF98
aF95
aF90
aF85
aF80
aF74
aF22
aF50
aF77
aF103
aF128
aF156
aF142
aF122
aF102
aF83
aF59
aF68
aF80
aF91
aF99
aF113
aF116
aF121
aF123
aF124
aF125
aF117
aF109
aF101
aF94
aF50
aF72
aF102
aF118
aF154
aF185
aF162
aF138
aF111
aF86
aF24
aF41
aF55
aF76
aF93
aF113
aF109
aF103
aF97
aF89
aF49
aF65
aF80
aF92
aF110
aF129
aF131
aF136
aF137
aF139
aF22
aF47
aF72
aF97
aF121
aF152
aF134
aF116
aF102
aF75
aF28
aF53
aF76
aF103
aF127
aF155
aF138
aF117
aF99
aF78
aF27
aF52
aF78
aF102
aF126
aF155
aF138
aF117
aF97
aF80
aF50
aF73
aF95
aF118
aF140
aF166
aF144
aF124
aF102
aF79
aF26
aF45
aF64
aF84
aF103
aF48
aF72
aF95
aF118
aF205
aF183
aF160
aF138
aF113
aF86
aF109
aF132
aF157
aF180
aF201
aF191
aF179
aF168
aF157
aF144
aF132
aF118
aF107
aF96
aF185
aF184
aF183
aF182
aF183
aF181
aF160
aF140
aF119
aF96
aF35
aF58
aF80
aF101
aF123
aF148
aF124
aF99
aF75
aF50
aF23
aF48
aF74
aF99
aF123
aF154
aF134
aF115
aF94
aF71
aF28
aF51
aF75
aF96
aF119
aF148
aF130
aF129
aF99
aF81
aF36
aF54
aF70
aF92
aF84
aF74
aF62
aF59
aF57
aF56
aF66
aF75
aF87
aF69
aF49
aF26
aF51
aF76
aF105
aF80
aF56
aF27
aF47
aF67
aF90
aF41
aF60
aF78
aF104
aF95
aF84
aF71
aF72
aF73
aF75
aF85
aF94
aF105
aF85
aF83
aF42
aF68
aF92
aF121
aF103
aF85
aF64
aF70
aF77
aF87
aF38
aF60
aF83
aF111
aF86
aF61
aF30
aF52
aF72
aF98
aF84
aF70
aF58
aF57
aF59
aF62
aF73
aF84
aF96
aF75
aF54
aF31
aF57
aF83
aF113
aF41
aF60
aF82
aF105
aF80
aF55
aF26
aF48
aF70
aF97
aF82
aF69
aF52
aF50
aF51
aF54
aF68
aF81
aF97
aF74
aF50
aF23
aF49
aF74
aF105
aF52
aF74
aF96
aF121
aF97
aF73
aF47
aF63
aF80
aF103
aF95
aF86
aF78
aF72
aF70
aF67
aF82
aF96
aF115
aF97
aF66
aF35
aF56
aF78
aF105
aF52
aF75
aF99
aF125
aF104
aF82
aF58
aF68
aF82
aF99
aF98
aF97
aF97
aF80
aF66
aF50
aF74
aF98
aF124
aF103
aF80
aF56
aF68
aF81
aF101
aF51
aF70
aF91
aF113
aF89
aF64
aF34
aF56
aF78
aF107
aF92
aF76
aF62
aF60
aF63
aF66
aF78
aF89
aF101
aF78
aF56
aF30
aF52
aF80
aF111
aF56
aF76
aF95
aF116
aF92
aF69
aF41
aF57
aF76
aF98
aF92
aF86
aF82
aF72
aF66
aF58
aF68
aF99
aF121
aF98
aF74
aF47
aF62
aF79
aF101
aF95
aF88
aF85
aF72
aF64
aF55
aF76
aF97
aF121
aF99
aF74
aF49
aF64
aF82
aF105
aF98
aF91
aF85
aF76
aF66
aF56
aF78
aF99
aF123
aF36
aF58
aF80
aF104
aF81
aF54
aF24
aF48
aF71
aF97
aF86
aF75
aF66
aF64
aF63
aF63
aF77
aF89
aF103
aF79
aF56
aF29
aF55
aF80
aF109
aF89
aF68
aF45
aF56
aF66
aF78
aF82
aF84
aF88
aF71
aF54
aF34
aF60
aF86
aF115
aF92
aF68
aF40
aF52
aF72
aF95
aF92
aF89
aF86
aF57
aF76
aF94
aF113
aF93
aF64
aF36
aF58
aF79
aF105
aF92
aF80
aF68
aF65
aF66
aF67
aF80
aF92
aF107
aF83
aF58
aF28
aF50
aF70
aF96
aF82
aF70
aF53
aF55
aF54
aF58
aF70
aF85
aF98
aF76
aF54
aF28
aF52
aF78
aF105
aF90
aF78
aF58
aF62
aF64
aF68
aF80
aF90
aF105
aF52
aF76
aF100
aF128
aF108
aF79
aF49
aF71
aF92
aF120
aF108
aF96
aF84
aF80
aF82
aF84
aF96
aF107
aF119
aF96
aF73
aF46
aF70
aF95
aF125
aF108
aF90
aF71
aF74
aF80
aF90
aF97
aF103
aF112
aF86
aF64
aF37
aF62
aF88
aF115
aF100
aF80
aF60
aF64
aF71
aF82
aF88
aF95
aF101
aF75
aF52
aF26
aF52
aF76
aF107
aF86
aF65
aF41
aF52
aF65
aF82
aF81
aF80
aF81
aF65
aF52
aF38
aF62
aF86
aF113
aF92
aF70
aF46
aF56
aF69
aF85
aF84
aF82
aF81
aF68
aF59
aF48
aF72
aF95
aF120
aF97
aF73
aF44
aF61
aF78
aF100
aF95
aF90
aF86
aF73
aF64
aF54
aF76
aF98
aF122
aF99
aF77
aF50
aF62
aF74
aF92
aF88
aF84
aF80
aF70
aF62
aF53
aF72
aF72
aF120
aF97
aF73
aF49
aF63
aF80
aF99
aF97
aF94
aF93
aF82
aF68
aF56
aF79
aF101
aF129
aF108
aF88
aF60
aF70
aF84
aF101
aF101
aF101
aF103
aF86
aF66
aF46
aF71
aF95
aF123
aF105
aF89
aF64
aF73
aF80
aF92
aF97
aF100
aF105
aF83
aF61
aF32
aF57
aF79
aF108
aF92
aF76
aF54
aF62
aF69
aF78
aF82
aF87
aF95
aF76
aF56
aF54
aF72
aF89
aF112
aF88
aF60
aF32
aF54
aF76
aF102
aF90
aF83
aF69
aF67
aF63
aF61
aF76
aF91
aF110
aF85
aF60
aF30
aF47
aF68
aF93
aF81
aF70
aF56
aF53
aF50
aF47
aF64
aF80
aF103
aF80
aF54
aF26
aF52
aF78
aF107
aF88
aF72
aF49
aF58
aF64
aF72
aF80
aF89
aF97
aF87
aF54
aF32
aF58
aF82
aF110
aF91
aF75
aF50
aF60
aF68
aF80
aF86
aF93
aF99
aF83
aF64
aF44
aF67
aF90
aF118
aF97
aF75
aF51
aF60
aF70
aF80
aF86
aF93
aF100
aF79
aF59
aF35
aF61
aF83
aF115
aF97
aF78
aF57
aF62
aF68
aF72
aF83
aF90
aF101
aF80
aF60
aF36
aF62
aF87
aF114
aF97
aF78
aF57
aF65
aF72
aF79
aF90
aF97
aF105
aF81
aF57
aF29
aF53
aF77
aF105
aF91
aF76
aF58
aF59
aF60
aF62
aF74
aF85
aF99
aF78
aF56
aF30
aF56
aF79
aF109
aF92
aF75
aF54
aF58
aF62
aF68
aF78
aF87
aF99
aF78
aF59
aF34
aF59
aF84
aF114
aF95
aF78
aF56
aF60
aF64
aF69
aF79
aF89
aF100
aF80
aF59
aF33
aF59
aF79
aF113
aF95
aF76
aF53
aF62
aF70
aF78
aF85
aF89
aF93
aF76
aF60
aF39
aF65
aF89
aF118
aF102
aF85
aF65
aF67
aF70
aF73
aF85
aF97
aF111
aF90
aF69
aF43
aF68
aF93
aF123
aF109
aF92
aF75
aF78
aF82
aF87
aF97
aF105
aF116
aF97
aF77
aF53
aF78
aF103
aF130
aF117
aF103
aF88
aF70
aF53
a.