(lp0
F-1.0443697810615162
aF-1.0
aF-1.0
aF1.189126156384027
aF0.0
aF-1.0
aF-1.189126156384027
aF2.0
aF0.0
aF-1.0
aF1.0897688575770665
aF-0.8086188122965878
aF6.368615504046552e-05
aF-0.8561835125338262
aF-0.8488412540070138
aF-0.18107420857404444
aF-0.19025801374720963
aF1.855043317781786
aF0.0
aF-1.141561110128666
aF-0.9999389674312321
aF0.14268464657994873
aF2.0000663397377925
aF-1.999936313837918
aF-1.999936313837918
aF-0.0951279212364875
aF-0.0908086099486588
aF0.7110610951588474
aF1.0
aF0.0
aF-5.85052585163521
aF-0.045413535407191175
aF1.0
aF-1.897638198172738
aF-0.9006798650837431
aF1.272790947418012
aF0.23376721567141878
aF0.8654211577621709
aF1.848787665591452
aF2.2360592344918526
aF-0.6591246299618447
aF0.3639179619550905
aF-0.9006653649796497
aF-2.1212155670382096
aF0.18805570476946265
aF0.7072052075885562
aF2.425363685403219
aF-0.48506356992140187
aF0.2873523738489654
aF-1.223025943378076
aF1.5050704498042364
aF-0.45348313356173264
aF0.24254289666887274
aF2.425363685403219
aF0.5089927497772608
aF0.8169742432025231
aF0.48057637076917636
aF3.325140549965502
aF1.4322591897129193
aF0.31923273023013543
aF-0.5231649081932002
aF-2.0426499533185165
aF0.3831413099013359
aF-0.19155356531320766
aF0.41216179184177903
aF-1.3223455203270387
aF1.4590186699863725
aF-1.3160073469789353
aF-0.38312576989497504
aF4.065276403723268
aF-0.2831532791707989
aF-0.6867949507493698
aF0.09876388095055866
aF-0.24262176185284545
aF0.39230066601423896
aF-1.5688618252883115
aF0.3738065217728579
aF1.2000025457628478
aF-0.9370439338295693
aF0.7107267207347157
aF-1.116896909662966
aF0.3805079111386416
aF-10.241946856222242
aF0.2845385453431868
aF1.0444462184158636
aF-9.183012758366434e-05
aF16.999904496552627
aF0.6091612609642993
aF14.298542628065258
aF-0.24262787360275517
aF-1.2975444060771686
aF-1.0572593246398458
aF0.40003429448202255
aF0.998869230134398
aF-0.4740531195185811
aF0.0
aF10.982652380361346
aF-0.6336626186244896
aF0.2911341530178948
aF1.3416086749835312
aF15.764890932196579
aF-1.8549900925070837
aF-0.05096074205661694
aF12.266503776216275
aF-2.239604312299073
aF0.39566262772229077
aF-1.8993677479532542
aF-0.7485704485804576
aF-1.5878080835218764
aF-2.3517367588978093
aF-2.2418167107980835
aF0.3742357630724662
aF-1.7775537784934823
aF3.8805780075472907
aF2.134308124606912
aF2.5012747273996734
aF-1.1641758615131286
aF-0.8944593025144219
aF-0.22772957380568748
aF-0.7287663247842069
aF9.183012758366434e-05
aF0.13623283507059025
aF1.1806094116960244
aF1.3417446348289754
aF-0.5122164191965801
aF-0.3805079111386416
aF0.6755283506845284
aF0.8485083752910878
aF1.5556167003940526
aF-0.44508384296580505
aF19.61163788028
aF-0.7416111344268881
aF17.67797208611734
aF0.49757714320686386
aF1.0001028497361475
aF-0.36205014909586297
aF-0.09435430020157298
aF-0.4788321234429276
aF0.4789950586646867
aF15.95124419491715
aF1.9401586275307618
aF1.1852884929811012
aF16.934394668004515
aF-0.8112887966349387
aF0.6799557299791577
aF4.4246292446943905
aF0.22712063717836006
aF0.22712063717836006
aF1.135267628712895
aF-0.7133899981017684
aF11.999919189406771
aF-8.139838458586164
aF2.290637584005882
aF-2.1213243874401453
aF-1.5595861140838458
aF-2.8284310530872396
aF-0.18578384259600256
aF0.18560337655160986
aF-2.78443703819182
aF1.3828758177595875
aF-0.09122290269319144
aF-17.065668748971625
aF1.2983677646074836
aF-0.6162517101963991
aF-1.8477009764570655
aF-0.696517976374678
aF0.6080873322446845
aF-0.9702402509090993
aF1.555742593349188
aF3.6213567082147637
aF0.4243754778461959
aF0.9998971502503601
aF0.22712063717836006
aF-9.550333268701093e-05
aF1.3748472721318081
aF12.684127014688748
aF2.729271538675972
aF5.79362800881508
aF-1.9494874675359029
aF-1.2671690238871278
aF-1.218432379695928
aF-0.8967188945203386
aF-2.599830844729558
aF-1.212672830154986
aF2.553348185807069
aF-0.00012188699469461994
aF1.9026083640371472
aF3.852779603055421
aF2.0
aF-0.1997409625369616
aF0.7358251468139256
aF1.0036827692017
aF1.0537096565208453
aF2.1827238423675466
aF-0.5521687061129752
aF2.6820206873851493
aF6.711143578097545e-05
aF2.598828361412033
aF1.517019076258726
aF18.3457184394189
aF1.3929962951721353
aF1.1330552629632207
aF0.39566262772229077
aF15.921979122975602
aF1.6116378314355448
aF-0.5404165204216445
aF-2.473956670729452
aF-1.2349618427392368
aF-0.8995931126465031
aF-2.257668417024643
aF1.3223202295212815
aF2.777700991020208
aF-0.7275995217726674
aF-0.48506356992140187
aF-1.340951996059756
aF0.6022655433665678
aF-0.9081949639630977
aF-0.9813586726739967
aF-1.6355126653377816
aF0.2802422679887755
aF-0.9571605704997079
aF0.948823061249233
aF3.9003446493107825
aF1.0
aF2.0
aF-1.3483049863231562
aF1.0858164997812798
aF1.135267628712895
aF-0.8626691749502384
aF-8.815692248031777e-05
aF13.233418071267398
aF-2.828430822008352
aF11.210745365722405
aF0.3792875463311889
aF-3.648065316661505
aF1.7233012774980487
aF0.17320877621238684
aF-0.0001051769930126012
aF0.6755283506845284
aF0.2845385453431868
aF15.42302160275675
aF-10.766260341455698
aF10.42056322973254
aF1.7483615067842244
aF1.8549900925070837
aF-1.0683609373293788
aF-1.0859999866973928
aF1.1806783338614109
aF0.14277287843675668
aF-8.815692248031777e-05
aF18.122396597495218
aF0.1999953347654948
aF10.279935334302891
aF-0.7901719433256584
aF3.0813625784228
aF-1.0428298890742393
aF0.18569409546238447
aF-0.09113413631274447
aF1.2311532502557458
aF13.93662610421826
aF-0.047516215955651475
aF0.6790059954292964
aF10.671465839830821
aF-0.09867789418828465
aF-1.552322319675314
aF-1.114170805035081
aF-3.602057087561848
aF-1.3223455203270387
aF-2.7358239624212963
aF-1.8641030544788055
aF-0.9701299198054318
aF-0.8943233426534949
aF-2.1430094018625425
aF-0.04716500652419864
aF6.559846138524687
aF-1.950158520480085
aF-0.4994235715119786
aF-0.7959183458827859
aF16.418231539069282
aF-0.7071856845192892
aF-0.5495376467403528
aF-0.7277247419782169
aF19.748681320858275
aF-1.6978660269889163
aF1.5451342315398033
aF1.456940298439239
aF-0.1422235785720094
aF-0.3639179619550905
aF1.0684266274237846
aF1.1661446985525732
aF5.029984899098921
aF1.5539493742352182
aF1.3794250894981346
aF0.44733105023480846
aF-0.44709835688130184
aF0.249678184252634
aF-1.0
aF-1.0
aF1.0
aF-3.0
aF0.10408033804523953
aF-1.7889459093360376
aF6.701774377692271
aF0.047519539721537996
aF0.18971779222032303
aF-0.04306686300846607
aF0.6376964335276316
aF-0.8383823088786464
aF0.5122816747195262
aF11.072619913565774
aF12.784080976348491
aF9.183012758366434e-05
aF-2.275528614388089
aF-0.13629922688132834
aF-0.9999081698656701
aF-1.1352013574000235
aF-9.550333268701093e-05
aF-0.8085267366708428
aF1.1416408628288934
aF13.175625044819071
aF-0.7901719433256584
aF12.32112470658056
aF0.44724398675508503
aF0.09507666215503185
aF-1.0683609373293788
aF-0.8599790340611264
aF-1.0681052003937896
aF1.5573924142723552
aF1.0536848505203844
aF13.284862964601482
aF6.045523047969153
aF-0.7071068967259818
aF2.121313064574661
aF-2.241904318827512
aF-1.4142174907141634
aF-2.3517367588978093
aF-1.4113849631305566
aF-1.414092910631508
aF-1.0037682188904355
aF0.3805158075151134
aF-0.04757033571139857
aF1.7976515107491176
aF0.8561835125338262
aF-0.14268464657994873
aF1.1141811327032887
aF-0.24252503221789823
aF1.9573508453005362
aF0.5645185708606899
aF2.1212028668563825
aF0.7069956545884573
aF1.2648014394814888
aF1.6517911789440838
aF0.7079333205520673
aF-1.2126186275862816
aF0.42088405989493705
aF-0.9265622619337393
aF-2.0062883944366146
aF-1.1289590402653111
aF-1.8815333158954637
aF0.894436633448235
aF-1.223025943378076
aF-0.6356909544667779
aF-1.600660901251505
aF-0.5335662211938814
aF-0.9513082700582132
aF-0.9513082700582132
aF-0.9999389674312321
aF0.14268464657994873
aF0.09511994634271015
aF1.4855714589173257
aF0.8395793699403216
aF1.1391231463792844
aF-1.6513009313526084
aF0.4850649599027159
aF3.0073076999702515
aF-1.0289880356997765
aF-0.42088405989493705
aF0.9700852691255468
aF-1.3159056680783277
aF-1.4142174907141634
aF-0.4703685595501028
aF0.5746013743434588
aF0.3162762251068614
aF-0.28320820320639406
aF-0.5883586775587868
aF-0.09113413631274447
aF1.3416086749835312
aF-1.4269018464689172
aF-0.3793522376093572
aF0.6161427969130937
aF-0.7070877395482311
aF-5.106723753327046
aF0.6635618144388413
aF-0.3793454927741884
aF-2.4336981864068896
aF-0.888952493770228
aF-1.1093910461800807
aF2.1341444619371055
aF0.2844500890224029
aF0.44508411198068076
aF0.5232221268317012
aF0.44720432791169173
aF0.6791105158640498
aF-0.9953877674914917
aF2.542811057236637
aF1.8815333158954637
aF-10.669475613639715
aF0.36205014909586297
aF0.3793522376093572
aF-1.728425511284323
aF1.4032964602786038
aF1.666414434028276
aF2.8221696225055606
aF-1.5556167003940526
aF0.8085267366708428
aF-0.14277287843675668
aF0.8945257589084381
aF0.37270378531592385
aF-1.397136623709084
aF-3.885131607561357
aF-1.3936500719808524
aF2.5428192631995863
aF2.000063686147999
aF0.19985274173291767
aF0.8058952937678285
aF1.156991191333363
aF0.1422235785720094
aF2.654753044353951
aF0.6306229331795183
aF1.2366796069177326
aF0.729530630605538
aF-1.6994161919648567
aF-0.4052378831302623
aF1.9999081698589238
aF-1.4142158731619512
aF0.08769967379405053
aF-0.22772957380568748
aF0.790195253744141
aF5.779766087066207e-05
aF-0.6949386742524863
aF-0.2746451473263214
aF2.972844384025203
aF-1.459042426612406
aF-2.121209216947296
aF-0.6135038743722463
aF-0.1455087102423711
aF1.0371071318414398
aF3.6975314421210914
aF0.7988993845080998
aF1.8475933802480315
aF1.035868876151767
aF0.4805681968898323
aF2.218790668937606
aF0.8561829365726663
aF1.9436472834259968
aF1.0464458113665922
aF-0.13659550179851188
aF9.680777410281394e-05
aF-0.808593759028188
aF-5.630067358241701
aF-0.22256202627178112
aF1.485561434670589
aF1.552322319675314
aF0.1454327034377556
aF-1.164261742634805
aF2.501189786262077
aF2.417707071966664
aF-1.1093992127170758
aF-1.1850389102344696
aF-1.0
aF0.047562874981126324
aF2.1879942990208443
aF2.4961495367295505
aF0.48057637076917636
aF0.48057637076917636
aF0.9485776841226441
aF-0.00010695080444733662
aF0.047229625537011266
aF-1.2184602139803546
aF-1.1169300587707855
aF0.5334932804782646
aF1.6641017961675004
aF0.6073618255467732
aF-2.114512441385161
aF-0.3994977737253796
aF1.4032964602786038
aF2.646485865331641
aF0.635705852814759
aF-1.3929962951721353
aF0.8085267366708428
aF1.0897933031040226
aF0.8945257589084381
aF-0.5122164191965801
aF1.0031198717190897
aF-1.8742192693056143
aF-1.6977622946358775
aF2.0695859188086363
aF-6.370991369373442
aF-0.7110452937634708
aF0.14132363984082774
aF1.3040883593936705
aF-0.5827595636311251
aF1.8569617851313627
aF-0.710759043411862
aF0.3805079111386416
aF0.5122164191965801
aF8.971988500894312e-05
aF0.45257212913460165
aF-1.5555502768402336
aF-1.3159056680783277
aF1.9848642481954268
aF2.0518244921436075
aF2.0469607559183025
aF0.42088405989493705
aF-0.5883663042391727
aF-1.5437912686088153
aF-0.7295061612694766
aF-3.104311705951769
aF-0.707002004679369
aF-1.568941817394232
aF0.2873523738489654
aF2.6678996372544845
aF2.1709263468778763
aF-0.5746013743434588
aF0.4849802741032576
aF0.180154437121141
aF-2.05810166745645
aF-0.3319009334247749
aF-0.7275519106648121
aF-1.6677441602720013
aF-6.791120872851053e-05
aF0.33945544422990004
aF-1.4141119609042452
aF-1.4141437113588058
aF0.05090543490027333
aF-0.9701354736239329
aF3.4481791347641484
aF3.3506833561338993
aF-0.7426942311643856
aF0.6135565837281911
aF0.7109938366760886
aF-0.8383823088786464
aF0.5827199097145446
aF-2.490337948924942
aF-1.2126186275862816
aF0.7844479954203427
aF-0.09401191773593176
aF-1.4141056108133334
aF-1.3170928464908407
aF-0.9161690298243856
aF-0.9578219347366561
aF3.822630502831971
aF1.5574156555639327
aF1.8405779663560793
aF-0.09882599934178238
aF-6.577946903246625
aF-0.8383823088786464
aF1.057259590902433
aF0.9785478156788177
aF-0.7885147332835967
aF-1.0931555811390048
aF-1.5170204232715037
aF0.29862705955179036
aF0.8484363226271121
aF0.8484363226271121
aF0.00010560848084040231
aF0.5927554250406395
aF-1.2366796069177326
aF-1.6007215193406577
aF-1.413476585004501
aF-0.04757033571139857
aF-2.3389277224467033
aF-0.09511994634271015
aF6.368615504046552e-05
aF1.5942005635778393
aF-0.1366517785612107
aF1.769834855022724
aF0.3775143494189841
aF0.1856285584809214
aF-0.5663443855879988
aF-2.8366739459702233
aF-0.7485032944224486
aF-0.5656003049826857
aF-1.10939394483046
aF-0.49385236824643464
aF-0.18954645162565775
aF-2.4141272092643966
aF-1.0671519190783822
aF-0.44733105023480846
aF1.492547002395764
aF-0.09481557966878928
aF0.8489486178178882
aF0.7751002963488194
aF0.8284430171803354
aF0.47031349729722116
aF1.1628208376840914
aF-1.2728114536291253
aF0.5614536043569394
aF-0.862032547314695
aF-0.9700852691255468
aF-2.107206404530726
aF-1.6355126653377816
aF0.09415297807902157
aF-1.6120925862715545
aF-1.9026083640371472
aF0.2828414460346518
aF0.18712316922429206
aF-0.7111467952849662
aF2.0518244921436075
aF2.1213241563612577
aF0.7071105939881814
aF-8.838662218642405
aF2.3158020969134605
aF-0.9999118430707734
aF-0.756423959386769
aF-0.04647375243139251
aF-0.19413610690163985
aF-2.758784138751846
aF-1.769834855022724
aF0.9314945148978335
aF3.0000663397342717
aF0.14268464657994873
aF-0.9513129130083033
aF1.7308473288316968
aF0.7770404477052146
aF2.0397129995968744
aF8.815692248031777e-05
aF1.0000918301208375
aF1.1352013574000235
aF-0.637629956289647
aF1.3041891188462973
aF1.0031198717190897
aF-1.4322039145077472
aF0.7901876360184303
aF-1.0572514337665329
aF0.18964005341431323
aF2.088737426204728
aF-0.8058553293715605
aF0.364384689600481
aF1.3273379995412444
aF0.38852541688955355
aF1.2842459853817765
aF-0.5232301631044933
aF1.024524214979639
aF0.4384884145453274
aF-1.1581156593465538
aF-0.5613890569207882
aF-2.196157723599093
aF2.037287299876711
aF-1.9888066057714013
aF-0.5438518394776533
aF3.8448876855125667
aF1.4553027905131168
aF1.4269600611785176
aF0.04757033571139857
aF2.826954790040089
aF0.8943321433602325
aF0.13343084388279713
aF0.5570847250978925
aF1.164261742634805
aF-6.2951843476829366
aF0.5493739170422733
aF-1.3748472721318081
aF-0.637629956289647
aF1.8550540852371729
aF0.04757793675090305
aF-1.7888452892716185
aF-0.7770171368445222
aF-1.5717639371475531
aF0.24716558153368062
aF-1.9999389674277115
aF0.14991087223400368
aF1.3416313440513843
aF-0.04657632556660651
aF0.04757033571139857
aF0.6306229331795183
aF-0.8966937284827843
aF1.6414522395732654
aF0.6260947838238309
aF1.576423544867736
aF-0.593451894732822
aF-2.8754854174967246
aF-1.4142174907141634
aF-3.697262199509055e-06
aF1.7649751106031877
aF-0.4849802741032576
aF0.5746013743434588
aF1.482375714868284
aF0.7411898096456273
aF-1.4552212669616789
aF0.8731624285998727
aF-0.6790700970037875
aF0.729530630605538
aF-0.17314222610550645
aF-0.18164088936659117
aF0.9999081698656701
aF-18.39026654636348
aF-1.7632652542273632
aF1.6977546857332637
aF3.064944163145083
aF-0.38322610074491337
aF-1.0537096565208453
aF0.7411898096456273
aF1.945616417579573
aF1.2507553635126394
aF2.092851302696822
aF-0.5927554250406395
aF-0.8945257589084381
aF0.7364737978148432
aF0.8147301951261605
aF-0.37928569352816144
aF-0.5827199097145446
aF1.3416717511741822
aF2.28307833854525
aF1.5644269336258159
aF-0.6635861266451766
aF-1.5168662649860245
aF-2.1404292527654833
aF-1.7599088827225946
aF1.0
aF3.7879064546320134
aF1.651087229600817
aF0.38842326565521823
aF-0.3464287721699648
aF0.3775814730445397
aF-0.14826353017548222
aF-0.5827199097145446
aF-1.9425192709836487
aF0.9512531542313667
aF2.939159855555957
aF-1.651087229600817
aF-1.0647759534382146
aF-1.0
aF-0.9037402214003298
aF3.4118316090456937
aF3.5283089184899463
aF0.18578384259600256
aF0.8395163341865484
aF0.8943933592241962
aF0.44718091056443576
aF-0.41920835523801436
aF-1.6976949774512304
aF-1.2044969849094964
aF-1.8993677479532542
aF-0.7751002963488194
aF-0.7751002963488194
aF-1.5594958350827497
aF-0.6081027107864214
aF0.4850788485201383
aF2.425363685403219
aF3.0559434190588366
aF1.2270672750421356
aF0.6135565837281911
aF0.17141749239967474
aF-0.22772957380568748
aF1.0020856898824295
aF0.09579387229406411
aF-0.9033361233263566
aF0.04624322408577619
aF0.7111467952849662
aF-0.8532115554829129
aF-0.7208614522065009
aF0.5883353397386695
aF0.18712316922429206
aF1.568916125225031
aF1.8405779663560793
aF1.3410535758332855
aF0.28320820320639406
aF2.2068552699658532
aF0.0
aF0.0
aF-0.4443794423713525
aF-0.19155356531320766
aF0.6134740694780438
aF1.975576239679608
aF-0.9406552066630596
aF-1.4105810129876115
aF-4.079659672172437
aF0.7952364553868301
aF4.31454004083847
aF0.8945402134749223
aF2.6834101083430255
aF1.4856491355040067
aF0.31923273023013543
aF-0.09113413631274447
aF-1.6006398644613462
aF1.3049596808996853
aF2.469414243637657
aF-1.3214393314365562
aF3.8829025671891984
aF-2.0383190485753175
aF-0.592687850130222
aF-1.1485560994604662
aF-1.0464310176179437
aF4.0
aF0.707002004679369
aF3.1983800478249353
aF1.4110251280975152
aF0.9265622619337393
aF0.4432354826089
aF-5.779766087066207e-05
aF-5.77235977246125
aF3.9015427706538173
aF-0.9130906650870934
aF0.2425405670612033
aF1.3828758177595875
aF-1.4552091107660425
aF1.9799001610959581
aF-1.1694394702983875
aF3.6027380444539965
aF-0.6790700970037875
aF0.3805079111386416
aF1.4902668817448266
aF0.4472091750083864
aF-3.877624179970951e-06
aF-0.8484363226271121
aF-19.40285392468489
aF0.7797863070591973
aF-1.3170166639821002
aF1.1641758615131286
aF2.042559524072387
aF-0.8395163341865484
aF-1.2126853151104133
aF0.608126240133986
aF2.3856919505663585
aF-3.539772194636493
aF2.8283128230812586
aF2.2418167107980835
aF1.5046774269780272
aF0.7751400306763703
aF2.1636579890243333
aF8.815692248031777e-05
aF-1.9998971502436138
aF0.37928569352816144
aF-0.637629956289647
aF0.8945257589084381
aF-1.0682957292449053
aF-1.8550462044050295
aF3.0917296105555625
aF-1.8550462044050295
aF-0.18964005341431323
aF2.853919830761376
aF-0.19985274173291767
aF1.035868876151767
aF1.2975360324289138
aF2.354788466630376
aF-0.5656671038053749
aF-1.730548024401981
aF-0.36205014909586297
aF-2.8726020440466122
aF1.3168423935320703
aF-2.522302147209153
aF-1.2626605012621397
aF1.564340508447433
aF-1.516955288131939
aF1.9071368483059175
aF3.0000663397342717
aF1.0000636861515197
aF-0.7751321780788025
aF0.9081625611751907
aF1.2126667895147705
aF1.1141062535687327
aF-2.107304526952067
aF-1.5102031205949826
aF-0.38804728218805273
aF-0.5403470841353526
aF-1.5555502768402336
aF-2.7292791995670775
aF0.7295361676035785
aF-1.9982241117271027
aF-1.2270672750421356
aF0.8242374244997608
aF0.09882599934178238
aF0.2831532791707989
aF3.1529548733947577
aF0.7275995217726674
aF1.2346491396136177
aF2.1827032088497944
aF0.48500555276109836
aF1.3797166466742057
aF-0.5657031285261596
aF0.40530469015876047
aF-2.6197136493962994
aF0.7761188459283108
aF-1.448526781129285
aF-1.0671519190783822
aF2.553348185807069
aF-1.8238719638123229
aF0.24252761807013634
aF1.482375714868284
aF0.39222191181149846
aF1.6978402104975707
aF0.9259069015544927
aF1.7757189217843834
aF0.31923273023013543
aF0.31923273023013543
aF-0.1823209232525933
aF-0.7109938366760886
aF-0.5122816747195262
aF-0.19420260367511055
aF-1.5810890433436642
aF-1.1142619163563925
aF1.552233053200788
aF0.24252761807013634
aF1.2126700365116765
aF0.5883384785523651
aF0.711171445826837
aF-0.6635618144388413
aF2.6996935645229314e-05
aF1.256077150741608
aF1.0904061953332969
aF0.45258234935381103
aF-1.3159056680783277
aF-1.9755215180735632
aF-2.0974205026188315
aF-0.7952005681392187
aF-0.242440777751173
aF3.6381253514815755
aF3.1147281692717907
aF-0.6914021369288212
aF-0.9910556127309791
aF-0.2915026010538515
aF-0.8889848634799762
aF-0.5213635619400581
aF-1.0000955033259407
aF-1.0000918301208375
aF0.14277287843675668
aF-1.4142172596352758
aF-2.972959629645633
aF-1.3159056680783277
aF-1.0537096565208453
aF0.6606508686293466
aF0.8619452936558991
aF3.9270825921332584
aF-1.2998590339063032
aF0.38312576989497504
aF-0.3954839054720729
aF-0.42094910385897677
aF0.9264946530928251
aF-1.1818062098590953
aF-1.0681052003937896
aF-0.9487612120986517
aF-0.4000024804868829
aF-1.2000025457628478
aF-2.691187104844696
aF0.09511994634271015
aF0.04755524610547157
aF-0.9037482127710648
aF0.7770404477052146
aF-0.09711707337078579
aF0.8849166656914988
aF0.3045888544836117
aF0.3805079111386416
aF2.428094059543664
aF-0.514098710080547
aF-1.1627593655185242
aF1.8162961552922754
aF-0.7071105939881814
aF0.09746786341042224
aF-2.1213241563612577
aF-0.7072094767541803
aF0.3742510193191113
aF-0.7952005681392187
aF-0.46574801926878173
aF0.10154184467269367
aF1.0671671051802054
aF0.582657021289414
aF-2.1369396393081015
aF1.3334070146733925
aF-1.2503072358634295
aF-1.3960685971292612
aF-0.04541672647858841
aF-2.1213243874401453
aF-2.193167212753057
aF-1.3222873193503926
aF-1.8013507121574337
aF1.1966619240387613
aF-0.7952005681392187
aF1.0671671051802054
aF1.0671671051802054
aF-0.7761039909836907
aF0.09701831333392263
aF-0.8384464520811115
aF0.711171445826837
aF-0.5403470841353526
aF0.2703081218951895
aF0.6658960976736374
aF-7.402495389216412
aF-1.3170166639821002
aF-1.5051599143226362
aF-1.2270672750421356
aF0.3560818640088197
aF-1.5574156555639327
aF2.1572665238112023
aF-0.7276134114078823
aF0.4975098467642569
aF1.4141119609042452
aF0.8465868647898915
aF2.57007917089477
aF0.5404165204216445
aF0.1809857485799673
aF0.40530469015876047
aF-2.600002524004182
aF-1.4142172596352758
aF-0.7071105939881814
aF-0.9513129130083033
aF-0.8147548423348363
aF-0.9006653649796497
aF1.262682937965554
aF-0.7901876360184303
aF-0.4856321041864451
aF1.341551019280768
aF-0.04757793675090305
aF-0.5232301631044933
aF-2.504400462228311
aF-2.1880110780775954
aF-8.44837173769712e-05
aF-1.60000230641762
aF-2.800002676314781
aF-0.8466487727177849
aF0.14132363984082774
aF-0.39230066601423896
aF-0.9823138040337538
aF1.0671671051802054
aF-0.40613167292219643
aF1.18528436485294
aF-0.3886203946215705
aF-0.7771413090093429
aF0.7901567078736296
aF-2.38689931112826
aF-1.3747809796437536
aF0.0
aF-1.7065725767226336
aF-1.0572514337665329
aF-1.6339346706432334
aF-3.4967379696068583
aF1.4141119609042452
aF2.257668417024643
a.