(lp1
F-1.0443697810615162
aF-1
aF-1
aF1.189126156384027
aF0
aF-1
aF-1.189126156384027
aF2
aF0
aF-1
aF1.0897688575770665
aF-0.80861881229658783
aF6.3686155040465519e-05
aF-0.85618351253382619
aF-0.84884125400701382
aF-0.18107420857404444
aF-0.19025801374720963
aF1.855043317781786
aF0
aF-1.141561110128666
aF-0.99993896743123212
aF0.14268464657994873
aF2.0000663397377925
aF-1.999936313837918
aF-1.999936313837918
aF-0.0951279212364875
aF-0.090808609948658803
aF0.71106109515884741
aF1
aF0
aF-5.8505258516352097
aF-0.045413535407191175
aF1
aF-1.8976381981727379
aF-0.90067986508374309
aF1.2727909474180119
aF0.23376721567141878
aF0.86542115776217088
aF1.8487876655914519
aF2.2360592344918526
aF-0.65912462996184473
aF0.36391796195509052
aF-0.90066536497964966
aF-2.1212155670382096
aF0.18805570476946265
aF0.70720520758855621
aF2.425363685403219
aF-0.48506356992140187
aF0.28735237384896539
aF-1.2230259433780759
aF1.5050704498042364
aF-0.45348313356173264
aF0.24254289666887274
aF2.425363685403219
aF0.50899274977726083
aF0.8169742432025231
aF0.48057637076917636
aF3.3251405499655018
aF1.4322591897129193
aF0.31923273023013543
aF-0.52316490819320016
aF-2.0426499533185165
aF0.38314130990133588
aF-0.19155356531320766
aF0.41216179184177903
aF-1.3223455203270387
aF1.4590186699863725
aF-1.3160073469789353
aF-0.38312576989497504
aF4.065276403723268
aF-0.28315327917079891
aF-0.6867949507493698
aF0.098763880950558658
aF-0.24262176185284545
aF0.39230066601423896
aF-1.5688618252883115
aF0.37380652177285789
aF1.2000025457628478
aF-0.9370439338295693
aF0.71072672073471566
aF-1.116896909662966
aF0.38050791113864157
aF-10.241946856222242
aF0.28453854534318679
aF1.0444462184158636
aF-9.1830127583664343e-05
aF16.999904496552627
aF0.60916126096429934
aF14.298542628065258
aF-0.24262787360275517
aF-1.2975444060771686
aF-1.0572593246398458
aF0.40003429448202255
aF0.99886923013439799
aF-0.47405311951858109
aF0
aF10.982652380361346
aF-0.63366261862448958
aF0.2911341530178948
aF1.3416086749835312
aF15.764890932196579
aF-1.8549900925070837
aF-0.050960742056616937
aF12.266503776216275
aF-2.2396043122990732
aF0.39566262772229077
aF-1.8993677479532542
aF-0.74857044858045763
aF-1.5878080835218764
aF-2.3517367588978093
aF-2.2418167107980835
aF0.3742357630724662
aF-1.7775537784934823
aF3.8805780075472907
aF2.1343081246069122
aF2.5012747273996734
aF-1.1641758615131286
aF-0.89445930251442185
aF-0.22772957380568748
aF-0.72876632478420689
aF9.1830127583664343e-05
aF0.13623283507059025
aF1.1806094116960244
aF1.3417446348289754
aF-0.51221641919658012
aF-0.38050791113864157
aF0.67552835068452843
aF0.8485083752910878
aF1.5556167003940526
aF-0.44508384296580505
aF19.61163788028
aF-0.74161113442688809
aF17.67797208611734
aF0.49757714320686386
aF1.0001028497361475
aF-0.36205014909586297
aF-0.094354300201572983
aF-0.47883212344292758
aF0.47899505866468672
aF15.95124419491715
aF1.9401586275307618
aF1.1852884929811012
aF16.934394668004515
aF-0.81128879663493869
aF0.67995572997915765
aF4.4246292446943905
aF0.22712063717836006
aF0.22712063717836006
aF1.1352676287128951
aF-0.7133899981017684
aF11.999919189406771
aF-8.1398384585861638
aF2.2906375840058821
aF-2.1213243874401453
aF-1.5595861140838458
aF-2.8284310530872396
aF-0.18578384259600256
aF0.18560337655160986
aF-2.78443703819182
aF1.3828758177595875
aF-0.091222902693191443
aF-17.065668748971625
aF1.2983677646074836
aF-0.61625171019639913
aF-1.8477009764570655
aF-0.69651797637467805
aF0.60808733224468448
aF-0.97024025090909927
aF1.555742593349188
aF3.6213567082147637
aF0.42437547784619589
aF0.99989715025036008
aF0.22712063717836006
aF-9.5503332687010926e-05
aF1.3748472721318081
aF12.684127014688748
aF2.7292715386759721
aF5.7936280088150802
aF-1.9494874675359029
aF-1.2671690238871278
aF-1.218432379695928
aF-0.89671889452033859
aF-2.5998308447295582
aF-1.2126728301549861
aF2.553348185807069
aF-0.00012188699469461994
aF1.9026083640371472
aF3.8527796030554211
aF2
aF-0.19974096253696161
aF0.73582514681392563
aF1.0036827692017001
aF1.0537096565208453
aF2.1827238423675466
aF-0.55216870611297519
aF2.6820206873851493
aF6.7111435780975448e-05
aF2.5988283614120329
aF1.5170190762587259
aF18.345718439418899
aF1.3929962951721353
aF1.1330552629632207
aF0.39566262772229077
aF15.921979122975602
aF1.6116378314355448
aF-0.54041652042164445
aF-2.4739566707294518
aF-1.2349618427392368
aF-0.8995931126465031
aF-2.257668417024643
aF1.3223202295212815
aF2.777700991020208
aF-0.7275995217726674
aF-0.48506356992140187
aF-1.340951996059756
aF0.60226554336656779
aF-0.90819496396309773
aF-0.98135867267399668
aF-1.6355126653377816
aF0.2802422679887755
aF-0.95716057049970793
aF0.94882306124923299
aF3.9003446493107825
aF1
aF2
aF-1.3483049863231562
aF1.0858164997812798
aF1.1352676287128951
aF-0.86266917495023843
aF-8.8156922480317774e-05
aF13.233418071267398
aF-2.8284308220083521
aF11.210745365722405
aF0.37928754633118889
aF-3.6480653166615049
aF1.7233012774980487
aF0.17320877621238684
aF-0.00010517699301260119
aF0.67552835068452843
aF0.28453854534318679
aF15.42302160275675
aF-10.766260341455698
aF10.42056322973254
aF1.7483615067842244
aF1.8549900925070837
aF-1.0683609373293788
aF-1.0859999866973928
aF1.1806783338614109
aF0.14277287843675668
aF-8.8156922480317774e-05
aF18.122396597495218
aF0.1999953347654948
aF10.279935334302891
aF-0.79017194332565843
aF3.0813625784227998
aF-1.0428298890742393
aF0.18569409546238447
aF-0.091134136312744474
aF1.2311532502557458
aF13.936626104218259
aF-0.047516215955651475
aF0.67900599542929641
aF10.671465839830821
aF-0.098677894188284654
aF-1.552322319675314
aF-1.1141708050350809
aF-3.6020570875618478
aF-1.3223455203270387
aF-2.7358239624212963
aF-1.8641030544788055
aF-0.97012991980543184
aF-0.89432334265349489
aF-2.1430094018625425
aF-0.047165006524198638
aF6.5598461385246871
aF-1.9501585204800851
aF-0.49942357151197858
aF-0.79591834588278587
aF16.418231539069282
aF-0.7071856845192892
aF-0.54953764674035277
aF-0.7277247419782169
aF19.748681320858275
aF-1.6978660269889163
aF1.5451342315398033
aF1.456940298439239
aF-0.1422235785720094
aF-0.36391796195509052
aF1.0684266274237846
aF1.1661446985525732
aF5.0299848990989213
aF1.5539493742352182
aF1.3794250894981346
aF0.44733105023480846
aF-0.44709835688130184
aF0.24967818425263399
aF-1
aF-1
aF1
aF-3
aF0.10408033804523953
aF-1.7889459093360376
aF6.7017743776922707
aF0.047519539721537996
aF0.18971779222032303
aF-0.043066863008466072
aF0.63769643352763161
aF-0.8383823088786464
aF0.51228167471952624
aF11.072619913565774
aF12.784080976348491
aF9.1830127583664343e-05
aF-2.2755286143880888
aF-0.13629922688132834
aF-0.9999081698656701
aF-1.1352013574000235
aF-9.5503332687010926e-05
aF-0.80852673667084285
aF1.1416408628288934
aF13.175625044819071
aF-0.79017194332565843
aF12.32112470658056
aF0.44724398675508503
aF0.095076662155031855
aF-1.0683609373293788
aF-0.85997903406112641
aF-1.0681052003937896
aF1.5573924142723552
aF1.0536848505203844
aF13.284862964601482
aF6.0455230479691533
aF-0.70710689672598181
aF2.121313064574661
aF-2.2419043188275118
aF-1.4142174907141634
aF-2.3517367588978093
aF-1.4113849631305566
aF-1.4140929106315081
aF-1.0037682188904355
aF0.38051580751511338
aF-0.04757033571139857
aF1.7976515107491176
aF0.85618351253382619
aF-0.14268464657994873
aF1.1141811327032887
aF-0.24252503221789823
aF1.9573508453005362
aF0.56451857086068991
aF2.1212028668563825
aF0.70699565458845726
aF1.2648014394814888
aF1.6517911789440838
aF0.70793332055206726
aF-1.2126186275862816
aF0.42088405989493705
aF-0.92656226193373925
aF-2.0062883944366146
aF-1.1289590402653111
aF-1.8815333158954637
aF0.89443663344823499
aF-1.2230259433780759
aF-0.63569095446677792
aF-1.600660901251505
aF-0.53356622119388142
aF-0.95130827005821317
aF-0.95130827005821317
aF-0.99993896743123212
aF0.14268464657994873
aF0.095119946342710149
aF1.4855714589173257
aF0.83957936994032156
aF1.1391231463792844
aF-1.6513009313526084
aF0.48506495990271592
aF3.0073076999702515
aF-1.0289880356997765
aF-0.42088405989493705
aF0.97008526912554682
aF-1.3159056680783277
aF-1.4142174907141634
aF-0.47036855955010282
aF0.57460137434345882
aF0.31627622510686138
aF-0.28320820320639406
aF-0.58835867755878679
aF-0.091134136312744474
aF1.3416086749835312
aF-1.4269018464689172
aF-0.37935223760935721
aF0.6161427969130937
aF-0.70708773954823112
aF-5.1067237533270458
aF0.66356181443884132
aF-0.37934549277418839
aF-2.4336981864068896
aF-0.888952493770228
aF-1.1093910461800807
aF2.1341444619371055
aF0.28445008902240287
aF0.44508411198068076
aF0.52322212683170122
aF0.44720432791169173
aF0.6791105158640498
aF-0.99538776749149172
aF2.5428110572366371
aF1.8815333158954637
aF-10.669475613639715
aF0.36205014909586297
aF0.37935223760935721
aF-1.728425511284323
aF1.4032964602786038
aF1.666414434028276
aF2.8221696225055606
aF-1.5556167003940526
aF0.80852673667084285
aF-0.14277287843675668
aF0.89452575890843811
aF0.37270378531592385
aF-1.3971366237090841
aF-3.8851316075613571
aF-1.3936500719808524
aF2.5428192631995863
aF2.0000636861479988
aF0.19985274173291767
aF0.80589529376782854
aF1.156991191333363
aF0.1422235785720094
aF2.6547530443539511
aF0.63062293317951834
aF1.2366796069177326
aF0.72953063060553802
aF-1.6994161919648567
aF-0.40523788313026232
aF1.9999081698589238
aF-1.4142158731619512
aF0.087699673794050526
aF-0.22772957380568748
aF0.79019525374414101
aF5.7797660870662071e-05
aF-0.69493867425248634
aF-0.27464514732632139
aF2.972844384025203
aF-1.459042426612406
aF-2.121209216947296
aF-0.61350387437224629
aF-0.14550871024237111
aF1.0371071318414398
aF3.6975314421210914
aF0.79889938450809983
aF1.8475933802480315
aF1.0358688761517669
aF0.48056819688983232
aF2.218790668937606
aF0.85618293657266631
aF1.9436472834259968
aF1.0464458113665922
aF-0.13659550179851188
aF9.6807774102813937e-05
aF-0.80859375902818797
aF-5.6300673582417007
aF-0.22256202627178112
aF1.485561434670589
aF1.552322319675314
aF0.14543270343775561
aF-1.164261742634805
aF2.5011897862620769
aF2.4177070719666638
aF-1.1093992127170758
aF-1.1850389102344696
aF-1
aF0.047562874981126324
aF2.1879942990208443
aF2.4961495367295505
aF0.48057637076917636
aF0.48057637076917636
aF0.94857768412264409
aF-0.00010695080444733662
aF0.047229625537011266
aF-1.2184602139803546
aF-1.1169300587707855
aF0.53349328047826461
aF1.6641017961675004
aF0.6073618255467732
aF-2.1145124413851608
aF-0.39949777372537959
aF1.4032964602786038
aF2.6464858653316412
aF0.635705852814759
aF-1.3929962951721353
aF0.80852673667084285
aF1.0897933031040226
aF0.89452575890843811
aF-0.51221641919658012
aF1.0031198717190897
aF-1.8742192693056143
aF-1.6977622946358775
aF2.0695859188086363
aF-6.3709913693734421
aF-0.71104529376347081
aF0.14132363984082774
aF1.3040883593936705
aF-0.58275956363112513
aF1.8569617851313627
aF-0.71075904341186202
aF0.38050791113864157
aF0.51221641919658012
aF8.9719885008943123e-05
aF0.45257212913460165
aF-1.5555502768402336
aF-1.3159056680783277
aF1.9848642481954268
aF2.0518244921436075
aF2.0469607559183025
aF0.42088405989493705
aF-0.58836630423917269
aF-1.5437912686088153
aF-0.72950616126947665
aF-3.1043117059517691
aF-0.70700200467936902
aF-1.568941817394232
aF0.28735237384896539
aF2.6678996372544845
aF2.1709263468778763
aF-0.57460137434345882
aF0.48498027410325761
aF0.18015443712114099
aF-2.0581016674564498
aF-0.33190093342477489
aF-0.72755191066481206
aF-1.6677441602720013
aF-6.791120872851053e-05
aF0.33945544422990004
aF-1.4141119609042452
aF-1.4141437113588058
aF0.050905434900273328
aF-0.97013547362393293
aF3.4481791347641484
aF3.3506833561338993
aF-0.7426942311643856
aF0.61355658372819111
aF0.71099383667608862
aF-0.8383823088786464
aF0.58271990971454457
aF-2.490337948924942
aF-1.2126186275862816
aF0.78444799542034271
aF-0.09401191773593176
aF-1.4141056108133334
aF-1.3170928464908407
aF-0.91616902982438564
aF-0.95782193473665611
aF3.8226305028319709
aF1.5574156555639327
aF1.8405779663560793
aF-0.098825999341782378
aF-6.5779469032466249
aF-0.8383823088786464
aF1.0572595909024329
aF0.97854781567881766
aF-0.78851473328359667
aF-1.0931555811390048
aF-1.5170204232715037
aF0.29862705955179036
aF0.84843632262711211
aF0.84843632262711211
aF0.00010560848084040231
aF0.59275542504063949
aF-1.2366796069177326
aF-1.6007215193406577
aF-1.413476585004501
aF-0.04757033571139857
aF-2.3389277224467033
aF-0.095119946342710149
aF6.3686155040465519e-05
aF1.5942005635778393
aF-0.13665177856121069
aF1.7698348550227241
aF0.3775143494189841
aF0.18562855848092141
aF-0.56634438558799882
aF-2.8366739459702233
aF-0.74850329442244856
aF-0.56560030498268565
aF-1.1093939448304599
aF-0.49385236824643464
aF-0.18954645162565775
aF-2.4141272092643966
aF-1.0671519190783822
aF-0.44733105023480846
aF1.4925470023957641
aF-0.094815579668789285
aF0.84894861781788822
aF0.77510029634881938
aF0.82844301718033542
aF0.47031349729722116
aF1.1628208376840914
aF-1.2728114536291253
aF0.56145360435693936
aF-0.86203254731469503
aF-0.97008526912554682
aF-2.1072064045307259
aF-1.6355126653377816
aF0.094152978079021565
aF-1.6120925862715545
aF-1.9026083640371472
aF0.28284144603465178
aF0.18712316922429206
aF-0.71114679528496616
aF2.0518244921436075
aF2.1213241563612577
aF0.70711059398818144
aF-8.8386622186424049
aF2.3158020969134605
aF-0.99991184307077341
aF-0.75642395938676898
aF-0.046473752431392512
aF-0.19413610690163985
aF-2.7587841387518459
aF-1.7698348550227241
aF0.93149451489783353
aF3.0000663397342717
aF0.14268464657994873
aF-0.95131291300830334
aF1.7308473288316968
aF0.77704044770521463
aF2.0397129995968744
aF8.8156922480317774e-05
aF1.0000918301208375
aF1.1352013574000235
aF-0.63762995628964703
aF1.3041891188462973
aF1.0031198717190897
aF-1.4322039145077472
aF0.79018763601843034
aF-1.0572514337665329
aF0.18964005341431323
aF2.088737426204728
aF-0.80585532937156046
aF0.36438468960048098
aF1.3273379995412444
aF0.38852541688955355
aF1.2842459853817765
aF-0.52323016310449333
aF1.024524214979639
aF0.43848841454532739
aF-1.1581156593465538
aF-0.56138905692078822
aF-2.196157723599093
aF2.0372872998767111
aF-1.9888066057714013
aF-0.54385183947765325
aF3.8448876855125667
aF1.4553027905131168
aF1.4269600611785176
aF0.04757033571139857
aF2.8269547900400891
aF0.89433214336023248
aF0.13343084388279713
aF0.55708472509789253
aF1.164261742634805
aF-6.2951843476829366
aF0.54937391704227334
aF-1.3748472721318081
aF-0.63762995628964703
aF1.8550540852371729
aF0.047577936750903049
aF-1.7888452892716185
aF-0.77701713684452223
aF-1.5717639371475531
aF0.24716558153368062
aF-1.9999389674277115
aF0.14991087223400368
aF1.3416313440513843
aF-0.046576325566606513
aF0.04757033571139857
aF0.63062293317951834
aF-0.89669372848278428
aF1.6414522395732654
aF0.62609478382383088
aF1.5764235448677359
aF-0.59345189473282201
aF-2.8754854174967246
aF-1.4142174907141634
aF-3.6972621995090549e-06
aF1.7649751106031877
aF-0.48498027410325761
aF0.57460137434345882
aF1.4823757148682839
aF0.74118980964562731
aF-1.4552212669616789
aF0.8731624285998727
aF-0.67907009700378751
aF0.72953063060553802
aF-0.17314222610550645
aF-0.18164088936659117
aF0.9999081698656701
aF-18.390266546363481
aF-1.7632652542273632
aF1.6977546857332637
aF3.0649441631450829
aF-0.38322610074491337
aF-1.0537096565208453
aF0.74118980964562731
aF1.9456164175795729
aF1.2507553635126394
aF2.0928513026968218
aF-0.59275542504063949
aF-0.89452575890843811
aF0.73647379781484323
aF0.81473019512616052
aF-0.37928569352816144
aF-0.58271990971454457
aF1.3416717511741822
aF2.2830783385452502
aF1.5644269336258159
aF-0.66358612664517658
aF-1.5168662649860245
aF-2.1404292527654833
aF-1.7599088827225946
aF1
aF3.7879064546320134
aF1.651087229600817
aF0.38842326565521823
aF-0.34642877216996482
aF0.37758147304453971
aF-0.14826353017548222
aF-0.58271990971454457
aF-1.9425192709836487
aF0.95125315423136669
aF2.9391598555559568
aF-1.651087229600817
aF-1.0647759534382146
aF-1
aF-0.90374022140032984
aF3.4118316090456937
aF3.5283089184899463
aF0.18578384259600256
aF0.83951633418654836
aF0.89439335922419616
aF0.44718091056443576
aF-0.41920835523801436
aF-1.6976949774512304
aF-1.2044969849094964
aF-1.8993677479532542
aF-0.77510029634881938
aF-0.77510029634881938
aF-1.5594958350827497
aF-0.60810271078642142
aF0.48507884852013827
aF2.425363685403219
aF3.0559434190588366
aF1.2270672750421356
aF0.61355658372819111
aF0.17141749239967474
aF-0.22772957380568748
aF1.0020856898824295
aF0.095793872294064109
aF-0.9033361233263566
aF0.046243224085776191
aF0.71114679528496616
aF-0.85321155548291294
aF-0.72086145220650089
aF0.58833533973866947
aF0.18712316922429206
aF1.568916125225031
aF1.8405779663560793
aF1.3410535758332855
aF0.28320820320639406
aF2.2068552699658532
aF0
aF0
aF-0.44437944237135252
aF-0.19155356531320766
aF0.61347406947804384
aF1.9755762396796079
aF-0.94065520666305957
aF-1.4105810129876115
aF-4.0796596721724372
aF0.79523645538683008
aF4.3145400408384704
aF0.8945402134749223
aF2.6834101083430255
aF1.4856491355040067
aF0.31923273023013543
aF-0.091134136312744474
aF-1.6006398644613462
aF1.3049596808996853
aF2.4694142436376572
aF-1.3214393314365562
aF3.8829025671891984
aF-2.0383190485753175
aF-0.59268785013022196
aF-1.1485560994604662
aF-1.0464310176179437
aF4
aF0.70700200467936902
aF3.1983800478249353
aF1.4110251280975152
aF0.92656226193373925
aF0.4432354826089
aF-5.7797660870662071e-05
aF-5.7723597724612503
aF3.9015427706538173
aF-0.91309066508709336
aF0.2425405670612033
aF1.3828758177595875
aF-1.4552091107660425
aF1.9799001610959581
aF-1.1694394702983875
aF3.6027380444539965
aF-0.67907009700378751
aF0.38050791113864157
aF1.4902668817448266
aF0.44720917500838642
aF-3.877624179970951e-06
aF-0.84843632262711211
aF-19.402853924684891
aF0.77978630705919727
aF-1.3170166639821002
aF1.1641758615131286
aF2.0425595240723871
aF-0.83951633418654836
aF-1.2126853151104133
aF0.60812624013398597
aF2.3856919505663585
aF-3.5397721946364928
aF2.8283128230812586
aF2.2418167107980835
aF1.5046774269780272
aF0.77514003067637027
aF2.1636579890243333
aF8.8156922480317774e-05
aF-1.9998971502436138
aF0.37928569352816144
aF-0.63762995628964703
aF0.89452575890843811
aF-1.0682957292449053
aF-1.8550462044050295
aF3.0917296105555625
aF-1.8550462044050295
aF-0.18964005341431323
aF2.853919830761376
aF-0.19985274173291767
aF1.0358688761517669
aF1.2975360324289138
aF2.3547884666303762
aF-0.56566710380537488
aF-1.7305480244019811
aF-0.36205014909586297
aF-2.8726020440466122
aF1.3168423935320703
aF-2.5223021472091531
aF-1.2626605012621397
aF1.5643405084474331
aF-1.516955288131939
aF1.9071368483059175
aF3.0000663397342717
aF1.0000636861515197
aF-0.77513217807880253
aF0.90816256117519067
aF1.2126667895147705
aF1.1141062535687327
aF-2.1073045269520669
aF-1.5102031205949826
aF-0.38804728218805273
aF-0.5403470841353526
aF-1.5555502768402336
aF-2.7292791995670775
aF0.72953616760357853
aF-1.9982241117271027
aF-1.2270672750421356
aF0.82423742449976078
aF0.098825999341782378
aF0.28315327917079891
aF3.1529548733947577
aF0.7275995217726674
aF1.2346491396136177
aF2.1827032088497944
aF0.48500555276109836
aF1.3797166466742057
aF-0.56570312852615956
aF0.40530469015876047
aF-2.6197136493962994
aF0.77611884592831082
aF-1.448526781129285
aF-1.0671519190783822
aF2.553348185807069
aF-1.8238719638123229
aF0.24252761807013634
aF1.4823757148682839
aF0.39222191181149846
aF1.6978402104975707
aF0.92590690155449273
aF1.7757189217843834
aF0.31923273023013543
aF0.31923273023013543
aF-0.1823209232525933
aF-0.71099383667608862
aF-0.51228167471952624
aF-0.19420260367511055
aF-1.5810890433436642
aF-1.1142619163563925
aF1.552233053200788
aF0.24252761807013634
aF1.2126700365116765
aF0.5883384785523651
aF0.711171445826837
aF-0.66356181443884132
aF2.6996935645229314e-05
aF1.256077150741608
aF1.0904061953332969
aF0.45258234935381103
aF-1.3159056680783277
aF-1.9755215180735632
aF-2.0974205026188315
aF-0.79520056813921869
aF-0.24244077775117301
aF3.6381253514815755
aF3.1147281692717907
aF-0.69140213692882124
aF-0.99105561273097909
aF-0.29150260105385151
aF-0.88898486347997618
aF-0.52136356194005806
aF-1.0000955033259407
aF-1.0000918301208375
aF0.14277287843675668
aF-1.4142172596352758
aF-2.9729596296456329
aF-1.3159056680783277
aF-1.0537096565208453
aF0.66065086862934663
aF0.86194529365589911
aF3.9270825921332584
aF-1.2998590339063032
aF0.38312576989497504
aF-0.39548390547207291
aF-0.42094910385897677
aF0.92649465309282508
aF-1.1818062098590953
aF-1.0681052003937896
aF-0.94876121209865172
aF-0.40000248048688292
aF-1.2000025457628478
aF-2.6911871048446958
aF0.095119946342710149
aF0.047555246105471571
aF-0.90374821277106476
aF0.77704044770521463
aF-0.097117073370785789
aF0.88491666569149885
aF0.30458885448361173
aF0.38050791113864157
aF2.428094059543664
aF-0.51409871008054697
aF-1.1627593655185242
aF1.8162961552922754
aF-0.70711059398818144
aF0.09746786341042224
aF-2.1213241563612577
aF-0.70720947675418033
aF0.37425101931911131
aF-0.79520056813921869
aF-0.46574801926878173
aF0.10154184467269367
aF1.0671671051802054
aF0.58265702128941399
aF-2.1369396393081015
aF1.3334070146733925
aF-1.2503072358634295
aF-1.3960685971292612
aF-0.045416726478588409
aF-2.1213243874401453
aF-2.1931672127530568
aF-1.3222873193503926
aF-1.8013507121574337
aF1.1966619240387613
aF-0.79520056813921869
aF1.0671671051802054
aF1.0671671051802054
aF-0.77610399098369065
aF0.097018313333922634
aF-0.83844645208111146
aF0.711171445826837
aF-0.5403470841353526
aF0.27030812189518949
aF0.66589609767363744
aF-7.402495389216412
aF-1.3170166639821002
aF-1.5051599143226362
aF-1.2270672750421356
aF0.35608186400881969
aF-1.5574156555639327
aF2.1572665238112023
aF-0.72761341140788227
aF0.49750984676425691
aF1.4141119609042452
aF0.84658686478989154
aF2.5700791708947701
aF0.54041652042164445
aF0.1809857485799673
aF0.40530469015876047
aF-2.6000025240041822
aF-1.4142172596352758
aF-0.70711059398818144
aF-0.95131291300830334
aF-0.8147548423348363
aF-0.90066536497964966
aF1.262682937965554
aF-0.79018763601843034
aF-0.48563210418644509
aF1.341551019280768
aF-0.047577936750903049
aF-0.52323016310449333
aF-2.5044004622283111
aF-2.1880110780775954
aF-8.4483717376971206e-05
aF-1.6000023064176201
aF-2.8000026763147812
aF-0.84664877271778494
aF0.14132363984082774
aF-0.39230066601423896
aF-0.98231380403375379
aF1.0671671051802054
aF-0.40613167292219643
aF1.1852843648529401
aF-0.3886203946215705
aF-0.77714130900934286
aF0.79015670787362957
aF-2.3868993111282601
aF-1.3747809796437536
aF0
aF-1.7065725767226336
aF-1.0572514337665329
aF-1.6339346706432334
aF-3.4967379696068583
aF1.4141119609042452
aF2.257668417024643
a.