(lp1
F28
aF27
aF26
aF26
aF26
aF20
aF20
aF22
aF22
aF21
aF20
aF22
aF22
aF24
aF26
aF26
aF27
aF30
aF30
aF30
aF41
aF42
aF40
aF42
aF44
aF52
aF53
aF56
aF57
aF57
aF42
aF56
aF57
aF54
aF51
aF49
aF26
aF68
aF83
aF95
aF106
aF116
aF118
aF74
aF92
aF107
aF107
aF101
aF95
aF87
aF103
aF121
aF119
aF116
aF111
aF97
aF83
aF67
aF53
aF73
aF95
aF117
aF102
aF78
aF55
aF70
aF86
aF104
aF98
aF95
aF87
aF80
aF72
aF68
aF63
aF60
aF74
aF88
aF102
aF83
aF61
aF39
aF61
aF85
aF103
aF128
aF154
aF139
aF115
aF93
aF105
aF119
aF132
aF138
aF140
aF140
aF125
aF110
aF95
aF114
aF138
aF159
aF140
aF116
aF92
aF68
aF43
aF18
aF30
aF48
aF66
aF64
aF58
aF56
aF44
aF34
aF26
aF48
aF70
aF91
aF71
aF46
aF20
aF40
aF62
aF84
aF61
aF88
aF113
aF130
aF165
aF145
aF119
aF94
aF66
aF40
aF62
aF87
aF112
aF138
aF162
aF148
aF127
aF105
aF83
aF64
aF49
aF76
aF101
aF128
aF150
aF143
aF120
aF101
aF83
aF64
aF69
aF78
aF89
aF96
aF106
aF104
aF104
aF101
aF98
aF95
aF90
aF85
aF80
aF74
aF70
aF50
aF77
aF103
aF128
aF142
aF142
aF122
aF102
aF83
aF63
aF68
aF80
aF91
aF99
aF110
aF116
aF121
aF123
aF124
aF126
aF117
aF109
aF101
aF94
aF84
aF72
aF102
aF118
aF154
aF178
aF162
aF138
aF112
aF86
aF60
aF41
aF55
aF76
aF93
aF109
aF109
aF103
aF97
aF89
aF83
aF65
aF80
aF92
aF110
aF126
aF131
aF136
aF137
aF139
aF139
aF47
aF72
aF97
aF121
aF146
aF134
aF116
aF102
aF75
aF54
aF53
aF76
aF103
aF127
aF152
aF138
aF117
aF99
aF78
aF56
aF52
aF78
aF102
aF126
aF150
aF138
aF117
aF97
aF80
aF60
aF73
aF95
aF118
aF140
aF161
aF144
aF124
aF102
aF79
aF56
aF45
aF64
aF84
aF103
aF107
aF72
aF95
aF118
aF141
aF183
aF173
aF138
aF113
aF90
aF109
aF132
aF157
aF180
aF201
aF191
aF178
aF168
aF157
aF146
aF132
aF118
aF107
aF96
aF86
aF184
aF183
aF182
aF183
aF180
aF160
aF140
aF119
aF96
aF76
aF58
aF80
aF101
aF123
aF144
aF124
aF99
aF75
aF50
aF25
aF48
aF74
aF99
aF123
aF148
aF134
aF115
aF94
aF71
aF49
aF51
aF75
aF96
aF119
aF143
aF130
aF129
aF99
aF81
aF63
a.