(lp1
F-1.0443697810615162
aF-1
aF-1
aF1.189126156384027
aF0
aF-1
aF-1.189126156384027
aF2
aF0
aF-1
aF1.0897688575770665
aF-0.80861881229658783
aF6.3686155040465519e-05
aF-0.85618351253382619
aF-0.84884125400701382
aF-0.18107420857404444
aF-0.19025801374720963
aF1.855043317781786
aF0
aF-1.141561110128666
aF-0.99993896743123212
aF0.14268464657994873
aF2.0000663397377925
aF-1.999936313837918
aF-1.999936313837918
aF-0.0951279212364875
aF-0.090808609948658803
aF0.71106109515884741
aF1
aF0
aF-5.8505258516352097
aF-0.045413535407191175
aF1
aF-1.8976381981727379
aF-0.90067986508374309
aF1.2727909474180119
aF0.23376721567141878
aF0.86542115776217088
aF1.8487876655914519
aF2.2360592344918526
aF-0.65912462996184473
aF0.36391796195509052
aF-0.90066536497964966
aF-2.1212155670382096
aF0.18805570476946265
aF0.70720520758855621
aF2.425363685403219
aF-0.48506356992140187
aF0.28735237384896539
aF-1.2230259433780759
aF1.5050704498042364
aF-0.45348313356173264
aF0.24254289666887274
aF2.425363685403219
aF0.50899274977726083
aF0.8169742432025231
aF0.48057637076917636
aF3.3251405499655018
aF1.4322591897129193
aF0.31923273023013543
aF-0.52316490819320016
aF-2.0426499533185165
aF0.38314130990133588
aF-0.19155356531320766
aF0.41216179184177903
aF-1.3223455203270387
aF1.4590186699863725
aF-1.3160073469789353
aF-0.38312576989497504
aF4.065276403723268
aF-0.28315327917079891
aF-0.6867949507493698
aF0.098763880950558658
aF-0.24262176185284545
aF0.39230066601423896
aF-1.5688618252883115
aF0.37380652177285789
aF1.2000025457628478
aF-0.9370439338295693
aF0.71072672073471566
aF-1.116896909662966
aF0.38050791113864157
aF-10.241946856222242
aF0.28453854534318679
aF1.0444462184158636
aF-9.1830127583664343e-05
aF16.999904496552627
aF0.60916126096429934
aF14.298542628065258
aF-0.24262787360275517
aF-1.2975444060771686
aF-1.0572593246398458
aF0.40003429448202255
aF0.99886923013439799
aF-0.47405311951858109
aF0
aF10.982652380361346
aF-0.63366261862448958
aF0.2911341530178948
aF1.3416086749835312
aF15.764890932196579
aF-1.8549900925070837
aF-0.050960742056616937
aF12.266503776216275
aF-2.2396043122990732
aF0.39566262772229077
aF-1.8993677479532542
aF-0.74857044858045763
aF-1.5878080835218764
aF-2.3517367588978093
aF-2.2418167107980835
aF0.3742357630724662
aF-1.7775537784934823
aF3.8805780075472907
aF2.1343081246069122
aF2.5012747273996734
aF-1.1641758615131286
aF-0.89445930251442185
aF-0.22772957380568748
aF-0.72876632478420689
aF9.1830127583664343e-05
aF0.13623283507059025
aF1.1806094116960244
aF1.3417446348289754
aF-0.51221641919658012
aF-0.38050791113864157
aF0.67552835068452843
aF0.8485083752910878
aF1.5556167003940526
aF-0.44508384296580505
aF19.61163788028
aF-0.74161113442688809
aF17.67797208611734
aF0.49757714320686386
aF1.0001028497361475
aF-0.36205014909586297
aF-0.094354300201572983
aF-0.47883212344292758
aF0.47899505866468672
aF15.95124419491715
aF1.9401586275307618
aF1.1852884929811012
aF16.934394668004515
aF-0.81128879663493869
aF0.67995572997915765
aF4.4246292446943905
aF0.22712063717836006
aF0.22712063717836006
aF1.1352676287128951
aF-0.7133899981017684
aF11.999919189406771
aF-8.1398384585861638
aF2.2906375840058821
aF-2.1213243874401453
aF-1.5595861140838458
aF-2.8284310530872396
aF-0.18578384259600256
aF0.18560337655160986
aF-2.78443703819182
aF1.3828758177595875
aF-0.091222902693191443
aF-17.065668748971625
aF1.2983677646074836
aF-0.61625171019639913
aF-1.8477009764570655
aF-0.69651797637467805
aF0.60808733224468448
aF-0.97024025090909927
aF1.555742593349188
aF3.6213567082147637
aF0.42437547784619589
aF0.99989715025036008
aF0.22712063717836006
aF-9.5503332687010926e-05
aF1.3748472721318081
aF12.684127014688748
aF2.7292715386759721
aF5.7936280088150802
aF-1.9494874675359029
aF-1.2671690238871278
aF-1.218432379695928
aF-0.89671889452033859
aF-2.5998308447295582
aF-1.2126728301549861
aF2.553348185807069
aF-0.00012188699469461994
aF1.9026083640371472
aF3.8527796030554211
aF2
aF-0.19974096253696161
aF0.73582514681392563
aF1.0036827692017001
aF1.0537096565208453
aF2.1827238423675466
aF-0.55216870611297519
aF2.6820206873851493
aF6.7111435780975448e-05
aF2.5988283614120329
aF1.5170190762587259
aF18.345718439418899
aF1.3929962951721353
aF1.1330552629632207
aF0.39566262772229077
aF15.921979122975602
aF1.6116378314355448
aF-0.54041652042164445
aF-2.4739566707294518
aF-1.2349618427392368
aF-0.8995931126465031
aF-2.257668417024643
aF1.3223202295212815
aF2.777700991020208
aF-0.7275995217726674
aF-0.48506356992140187
aF-1.340951996059756
aF0.60226554336656779
aF-0.90819496396309773
aF-0.98135867267399668
aF-1.6355126653377816
aF0.2802422679887755
aF-0.95716057049970793
aF0.94882306124923299
aF3.9003446493107825
aF1
aF2
aF-1.3483049863231562
aF1.0858164997812798
aF1.1352676287128951
aF-0.86266917495023843
aF-8.8156922480317774e-05
aF13.233418071267398
aF-2.8284308220083521
aF11.210745365722405
aF0.37928754633118889
aF-3.6480653166615049
aF1.7233012774980487
aF0.17320877621238684
aF-0.00010517699301260119
aF0.67552835068452843
aF0.28453854534318679
aF15.42302160275675
aF-10.766260341455698
aF10.42056322973254
aF1.7483615067842244
aF1.8549900925070837
aF-1.0683609373293788
aF-1.0859999866973928
aF1.1806783338614109
aF0.14277287843675668
aF-8.8156922480317774e-05
aF18.122396597495218
aF0.1999953347654948
aF10.279935334302891
aF-0.79017194332565843
aF3.0813625784227998
aF-1.0428298890742393
aF0.18569409546238447
aF-0.091134136312744474
aF1.2311532502557458
aF13.936626104218259
aF-0.047516215955651475
aF0.67900599542929641
aF10.671465839830821
aF-0.098677894188284654
aF-1.552322319675314
aF-1.1141708050350809
aF-3.6020570875618478
aF-1.3223455203270387
aF-2.7358239624212963
aF-1.8641030544788055
aF-0.97012991980543184
aF-0.89432334265349489
aF-2.1430094018625425
aF-0.047165006524198638
aF6.5598461385246871
aF-1.9501585204800851
aF-0.49942357151197858
aF-0.79591834588278587
aF16.418231539069282
aF-0.7071856845192892
aF-0.54953764674035277
aF-0.7277247419782169
aF19.748681320858275
aF-1.6978660269889163
aF1.5451342315398033
aF1.456940298439239
aF-0.1422235785720094
aF-0.36391796195509052
aF1.0684266274237846
aF1.1661446985525732
aF5.0299848990989213
aF1.5539493742352182
aF1.3794250894981346
aF0.44733105023480846
aF-0.44709835688130184
aF0.24967818425263399
aF-1
aF-1
aF1
aF-3
aF0.10408033804523953
aF-1.7889459093360376
aF6.7017743776922707
aF0.047519539721537996
aF0.18971779222032303
aF-0.043066863008466072
aF0.63769643352763161
aF-0.8383823088786464
aF0.51228167471952624
aF11.072619913565774
aF12.784080976348491
aF9.1830127583664343e-05
aF-2.2755286143880888
aF-0.13629922688132834
aF-0.9999081698656701
aF-1.1352013574000235
aF-9.5503332687010926e-05
aF-0.80852673667084285
aF1.1416408628288934
aF13.175625044819071
aF-0.79017194332565843
aF12.32112470658056
aF0.44724398675508503
aF0.095076662155031855
aF-1.0683609373293788
aF-0.85997903406112641
aF-1.0681052003937896
aF1.5573924142723552
aF1.0536848505203844
aF13.284862964601482
aF6.0455230479691533
aF-0.70710689672598181
aF2.121313064574661
aF-2.2419043188275118
aF-1.4142174907141634
a.