(lp1
F28
aF27
aF26
aF26
aF26
aF20
aF20
aF22
aF22
aF21
aF20
aF22
aF22
aF24
aF26
aF26
aF27
aF30
aF30
aF30
aF41
aF42
aF40
aF42
aF44
aF52
aF53
aF56
aF57
aF57
aF42
aF56
aF57
aF54
aF51
aF49
aF26
aF68
aF83
aF95
aF106
aF116
aF118
aF74
aF92
aF107
aF107
aF101
aF95
aF87
aF103
aF121
aF119
aF116
aF111
aF97
aF83
aF67
aF53
aF73
aF95
aF117
aF102
aF78
aF55
aF70
aF86
aF104
aF98
aF95
aF87
aF80
aF72
aF68
aF63
aF60
aF74
aF88
aF102
aF83
aF61
aF39
aF61
aF85
aF103
aF128
aF154
aF139
aF115
aF93
aF105
aF119
aF132
aF138
aF140
aF140
aF125
aF110
aF95
aF114
aF138
aF159
aF140
aF116
aF92
aF68
aF43
aF18
aF30
aF48
aF66
aF64
aF58
aF56
aF44
aF34
aF26
aF48
aF70
aF91
aF71
aF46
aF20
aF40
aF62
aF84
aF61
aF88
aF113
aF130
aF165
aF145
aF119
aF94
aF66
aF40
aF62
aF87
aF112
aF138
aF162
aF148
aF127
aF105
aF83
aF64
aF49
aF76
aF101
aF128
aF150
aF143
aF120
aF101
aF83
aF64
aF69
aF78
aF89
aF96
aF106
aF104
aF104
aF101
aF98
aF95
aF90
aF85
aF80
aF74
aF70
aF50
aF77
aF103
aF128
aF142
aF142
aF122
aF102
aF83
aF63
aF68
aF80
aF91
aF99
aF110
aF116
aF121
aF123
aF124
aF126
aF117
aF109
aF101
aF94
aF84
aF72
aF102
aF118
aF154
aF178
aF162
aF138
aF112
aF86
aF60
aF41
aF55
aF76
aF93
aF109
aF109
aF103
aF97
aF89
aF83
aF65
aF80
aF92
aF110
aF126
aF131
aF136
aF137
aF139
aF139
aF47
aF72
aF97
aF121
aF146
aF134
aF116
aF102
aF75
aF54
aF53
aF76
aF103
aF127
aF152
aF138
aF117
aF99
aF78
aF56
aF52
aF78
aF102
aF126
aF150
aF138
aF117
aF97
aF80
aF60
aF73
aF95
aF118
aF140
aF161
aF144
aF124
aF102
aF79
aF56
aF45
aF64
aF84
aF103
aF107
aF72
aF95
aF118
aF141
aF183
aF173
aF138
aF113
aF90
aF109
aF132
aF157
aF180
aF201
aF191
aF178
aF168
aF157
aF146
aF132
aF118
aF107
aF96
aF86
aF184
aF183
aF182
aF183
aF180
aF160
aF140
aF119
aF96
aF76
aF58
aF80
aF101
aF123
aF144
aF124
aF99
aF75
aF50
aF25
aF48
aF74
aF99
aF123
aF148
aF134
aF115
aF94
aF71
aF49
aF51
aF75
aF96
aF119
aF143
aF130
aF129
aF99
aF81
aF63
aF54
aF70
aF90
aF84
aF74
aF64
aF59
aF57
aF56
aF66
aF75
aF84
aF69
aF49
aF31
aF51
aF76
aF101
aF80
aF56
aF31
aF47
aF67
aF87
aF80
aF60
aF78
aF99
aF95
aF84
aF73
aF72
aF73
aF74
aF85
aF94
aF103
aF85
aF83
aF45
aF68
aF92
aF116
aF103
aF85
aF66
aF70
aF77
aF85
aF91
aF60
aF83
aF105
aF86
aF61
aF35
aF52
aF72
aF94
aF84
aF70
aF56
aF57
aF59
aF62
aF73
aF84
aF94
aF75
aF54
aF34
aF57
aF83
aF108
aF89
aF60
aF82
aF100
aF80
aF55
aF31
aF48
aF70
aF92
aF82
aF69
aF55
aF50
aF51
aF52
aF68
aF81
aF94
aF74
aF50
aF26
aF49
aF74
aF99
aF94
aF74
aF96
aF116
aF97
aF73
aF51
aF63
aF80
aF99
aF95
aF86
aF79
aF72
aF70
aF67
aF82
aF96
aF112
aF97
aF66
aF44
aF56
aF78
aF101
aF92
aF75
aF99
aF122
aF104
aF82
aF61
aF68
aF82
aF95
aF98
aF97
aF98
aF80
aF66
aF52
aF74
aF98
aF121
aF103
aF80
aF60
aF68
aF81
aF97
aF101
aF70
aF91
aF109
aF89
aF64
aF40
aF56
aF78
aF100
aF92
aF76
aF63
aF60
aF63
aF66
aF78
aF89
aF99
aF78
aF56
aF34
aF52
aF80
aF105
aF93
aF76
aF95
aF113
aF92
aF69
aF45
aF57
aF76
aF93
aF92
aF86
aF83
aF72
aF66
aF60
aF68
aF99
aF118
aF98
aF74
aF53
aF62
aF79
aF91
aF95
aF89
aF85
aF72
aF64
aF56
aF76
aF97
aF118
aF99
aF74
aF53
aF64
aF82
aF100
aF98
aF91
aF87
aF76
aF66
aF58
aF78
aF99
aF115
aF104
aF58
aF80
aF100
aF81
aF54
aF27
aF48
aF71
aF95
aF86
aF75
aF65
aF64
aF63
aF63
aF77
aF89
aF101
aF79
aF56
aF32
aF55
aF80
aF105
aF89
aF68
aF48
aF56
aF66
aF77
aF82
aF84
aF86
aF71
aF54
aF42
aF57
aF86
aF110
aF92
aF68
aF44
aF52
aF72
aF88
aF92
aF89
aF85
aF74
aF76
aF94
aF111
aF93
aF64
aF40
aF58
aF79
aF101
aF92
aF80
aF70
aF65
aF66
aF68
aF80
aF92
aF106
aF83
aF58
aF33
aF50
aF70
aF92
aF82
aF70
aF56
aF55
aF54
aF57
aF70
aF85
aF96
aF76
aF54
aF29
aF52
aF78
aF102
aF90
aF78
aF60
aF62
aF64
aF68
aF80
aF90
aF103
aF83
aF76
aF100
aF122
aF108
aF79
aF54
aF71
aF92
aF113
aF108
aF96
aF83
aF80
aF82
aF83
aF96
aF107
aF117
aF96
aF73
aF49
aF70
aF95
aF119
aF108
aF90
aF74
aF74
aF80
aF86
aF97
aF103
aF107
aF86
aF64
aF40
aF62
aF88
aF113
aF100
aF80
aF63
aF64
aF71
aF79
aF88
aF95
aF102
aF75
aF52
aF30
aF52
aF76
aF101
aF86
aF65
aF45
aF52
aF65
aF79
aF81
aF80
aF81
aF65
aF52
aF41
aF62
aF86
aF110
aF92
aF70
aF49
aF56
aF69
aF82
aF84
aF82
aF82
aF68
aF59
aF50
aF72
aF95
aF115
aF97
aF75
aF48
aF61
aF78
aF96
aF95
aF90
aF87
aF73
aF64
aF56
aF76
aF98
aF119
aF99
aF77
aF52
aF62
aF74
aF89
aF88
aF84
aF81
aF70
aF62
aF54
aF72
aF72
aF72
aF97
aF73
aF52
aF63
aF80
aF94
aF97
aF94
aF93
aF82
aF68
aF58
aF79
aF101
aF123
aF108
aF88
aF64
aF70
aF84
aF97
aF101
aF101
aF105
aF86
aF66
aF51
aF71
aF95
aF119
aF105
aF89
aF69
aF73
aF80
aF90
aF97
aF100
aF106
aF83
aF61
aF35
aF57
aF79
aF106
aF92
aF76
aF58
aF62
aF69
aF78
aF82
aF87
aF94
aF76
aF56
aF38
aF72
aF89
aF105
aF88
aF60
aF35
aF54
aF76
aF98
aF90
aF83
aF71
aF67
aF63
aF62
aF76
aF91
aF108
aF85
aF60
aF34
aF47
aF68
aF88
aF81
aF70
aF56
aF53
aF50
aF49
aF64
aF80
aF97
aF80
aF54
aF30
aF52
aF78
aF103
aF88
aF72
aF53
aF58
aF64
aF72
aF80
aF89
aF95
aF87
aF54
aF36
aF58
aF82
aF107
aF91
aF75
aF53
aF60
aF68
aF79
aF86
aF93
aF98
aF83
aF64
aF48
aF67
aF90
aF114
aF97
aF75
aF53
aF60
aF70
aF78
aF86
aF93
aF98
aF79
aF59
aF38
aF61
aF83
aF110
aF97
aF78
aF60
aF62
aF68
aF70
aF83
aF90
aF97
aF80
aF60
aF43
aF62
aF87
aF111
aF97
aF78
aF60
aF65
aF72
aF78
aF90
aF97
aF104
aF81
aF57
aF32
aF53
aF77
aF101
aF91
aF76
aF60
aF59
aF60
aF62
aF74
aF85
aF96
aF78
aF56
aF33
aF56
aF79
aF105
aF92
aF75
aF57
aF58
aF62
aF67
aF78
aF87
aF97
aF78
aF59
aF38
aF59
aF84
aF107
aF95
aF78
aF59
aF60
aF64
aF69
aF79
aF89
aF97
aF80
aF59
aF38
aF59
aF79
aF107
aF95
aF77
aF60
aF62
aF70
aF79
aF85
aF89
aF92
aF76
aF60
aF43
aF65
aF89
aF114
aF102
aF85
aF68
aF67
aF70
aF73
aF85
aF97
aF107
aF90
aF69
aF47
aF68
aF93
aF116
aF109
aF92
aF76
aF78
aF83
aF87
aF97
aF105
aF114
aF97
aF77
aF57
aF78
aF103
aF103
aF117
aF103
aF89
aF70
aF53
aF36
a.