(lp0
F0.0
aF0.0
aF0.0
aF0.0
aF0.0
aF0.0
aF0.0
aF0.0
aF0.0
aF0.0
aF-0.0
aF-0.0
aF-0.0
aF-0.0
aF-0.0
aF0.0
aF0.0
aF0.0
aF0.0
aF0.0
aF-0.0
aF-0.0
aF-0.0
aF-0.0
aF-0.0
aF0.0
aF0.0
aF0.0
aF0.0
aF0.0
aF0.0
aF0.0
aF0.0
aF0.0
aF0.0
aF0.0
aF0.0
aF0.0
aF0.0
aF0.0
aF0.0
aF0.0
aF-0.0
aF-0.0
aF-0.0
aF-0.0
aF0.0
aF0.0
aF0.0
aF-0.0
aF-0.0
aF-0.0
aF0.0
aF0.0
aF0.0
aF0.0
aF0.0
aF0.0
aF0.0
aF0.0
aF0.0
aF0.0
aF0.0
aF0.0
aF0.0
aF-0.0
aF-0.0
aF-0.0
aF0.0
aF0.0
aF0.0
aF0.0
aF0.0
aF0.0
aF0.0
aF0.0
aF0.0
aF0.0
aF0.0
aF0.0
aF0.0
aF0.0
aF-0.0
aF0.0
aF0.0
aF-0.0
aF-0.0
aF0.0
aF0.0
aF0.0
aF-0.0
aF-0.0
aF-0.0
aF0.0
aF0.0
aF0.0
aF0.0
aF0.0
aF0.0
aF0.0
aF0.0
aF0.0
aF0.0
aF0.0
aF0.0
aF0.0
aF0.0
aF0.0
aF-0.0
aF-0.0
aF-0.0
aF0.0
aF0.0
aF0.0
aF0.0
aF0.0
aF0.0
aF0.0
aF0.0
aF0.0
aF0.0
aF0.0
aF0.0
aF-0.0
aF-0.0
aF-0.0
aF0.0
aF0.0
aF0.0
aF0.0
aF0.0
aF0.0
aF0.0
aF0.0
aF0.0
aF0.0
aF-0.0
aF-0.0
aF-0.0
aF-0.0
aF-0.0
aF0.0
aF0.0
aF0.0
aF0.0
aF0.0
aF0.0
aF0.0
aF0.0
aF0.0
aF-0.0
aF0.0
aF0.0
aF0.0
aF0.0
aF0.0
aF-0.0
aF-0.0
aF-0.0
aF-0.0
aF-0.0
aF0.0
aF0.0
aF0.0
aF0.0
aF0.0
aF0.0
aF0.0
aF0.0
aF0.0
aF0.0
aF-0.0
aF0.0
aF-0.0
aF0.0
aF0.0
aF0.0
aF0.0
aF0.0
aF0.0
aF0.0
aF-0.0
aF-0.0
aF-0.0
aF-0.0
aF-0.0
aF0.0
aF0.0
aF0.0
aF0.0
aF0.0
aF0.0
aF0.0
aF0.0
aF0.0
aF0.0
aF0.0
aF0.0
aF0.0
aF0.0
aF0.0
aF0.0
aF0.0
aF0.0
aF0.0
aF0.0
aF-0.0
aF-0.0
aF-0.0
aF-0.0
aF-0.0
aF0.0
aF0.0
aF0.0
aF0.0
aF0.0
aF-0.0
aF-0.0
aF-0.0
aF-0.0
aF-0.0
aF0.0
aF0.0
aF0.0
aF0.0
aF0.0
aF0.0
aF0.0
aF0.0
aF-0.0
aF0.0
aF0.0
aF0.0
aF0.0
aF0.0
aF0.0
aF0.0
aF0.0
aF0.0
aF0.0
aF0.0
aF0.0
aF0.0
aF0.0
aF0.0
aF0.0
aF-0.0
aF0.0
aF0.0
aF-0.0
aF0.0
aF0.0
aF0.0
aF0.0
aF0.0
aF0.0
aF0.0
aF0.0
aF0.0
aF0.0
aF0.0
aF0.0
aF0.0
aF0.0
aF0.0
aF0.0
aF-0.0
aF-0.0
aF-0.0
aF-0.0
aF-0.0
aF-0.0
aF-0.0
aF-0.0
aF-0.0
aF0.0
aF0.0
aF0.0
aF0.0
aF0.0
aF-0.0
aF-0.0
aF-0.0
aF-0.0
aF-0.0
aF0.0
aF0.0
aF0.0
aF0.0
aF0.0
aF0.0
aF0.0
aF0.0
aF0.0
aF0.0
aF0.0
aF0.0
aF0.0
aF0.0
aF0.0
aF0.0
aF0.0
aF0.0
aF0.0
aF0.0
aF0.0
aF0.0
aF0.0
aF0.0
aF0.0
aF0.0
aF0.0
aF0.0
aF0.0
aF0.0
aF-0.0
aF-0.0
aF0.0
aF0.0
aF0.0
aF0.0
aF0.0
aF0.0
aF0.0
aF0.0
aF-0.0
aF-0.0
aF-0.0
aF-0.0
aF-0.0
aF0.0
aF0.0
aF0.0
aF0.0
aF0.0
aF-0.0
aF-0.0
aF-0.0
aF0.0
aF0.0
aF0.0
aF0.0
aF0.0
aF0.0
aF0.0
aF0.0
aF0.0
aF0.0
aF0.0
aF0.0
aF0.0
aF0.0
aF0.0
aF0.0
aF0.0
aF0.0
aF-0.0
aF-0.0
aF-0.0
aF0.0
aF-0.0
aF-0.0
aF-0.0
aF0.0
aF0.0
aF0.0
aF-0.0
aF-0.0
aF-0.0
aF0.0
aF0.0
aF0.0
aF0.0
aF0.0
aF0.0
aF0.0
aF0.0
aF0.0
aF0.0
aF0.0
aF0.0
aF-0.0
aF-0.0
aF-0.0
aF0.0
aF0.0
aF0.0
aF0.0
aF0.0
aF0.0
aF0.0
aF-0.0
aF-0.0
aF-0.0
aF0.0
aF0.0
aF0.0
aF-0.0
aF-0.0
aF-0.0
aF0.0
aF0.0
aF0.0
aF0.0
aF0.0
aF0.0
aF-0.0
aF0.0
aF0.0
aF0.0
aF0.0
aF0.0
aF0.0
aF0.0
aF0.0
aF0.0
aF-0.0
aF-0.0
aF-0.0
aF0.0
aF0.0
aF0.0
aF-0.0
aF-0.0
aF-0.0
aF0.0
aF0.0
aF0.0
aF0.0
aF0.0
aF0.0
aF-0.0
aF-0.0
aF-0.0
aF0.0
aF0.0
aF0.0
aF0.0
aF0.0
aF0.0
aF0.0
aF-0.0
aF-0.0
aF-0.0
aF0.0
aF0.0
aF0.0
aF0.0
aF0.0
aF0.0
aF0.0
aF0.0
aF0.0
aF0.0
aF0.0
aF0.0
aF-0.0
aF-0.0
aF-0.0
aF0.0
aF0.0
aF0.0
aF0.0
aF0.0
aF0.0
aF0.0
aF-0.0
aF-0.0
aF-0.0
aF0.0
aF0.0
aF0.0
aF0.0
aF0.0
aF0.0
aF0.0
aF0.0
aF0.0
aF0.0
aF0.0
aF0.0
aF-0.0
aF-0.0
aF-0.0
aF0.0
aF0.0
aF0.0
aF0.0
aF0.0
aF0.0
aF0.0
aF-0.0
aF-0.0
aF-0.0
aF0.0
aF0.0
aF0.0
aF0.0
aF-0.0
aF-0.0
aF0.0
aF0.0
aF0.0
aF0.0
aF0.0
aF0.0
aF-0.0
aF-0.0
aF-0.0
aF0.0
aF0.0
aF0.0
aF0.0
aF0.0
aF0.0
aF0.0
aF-0.0
aF-0.0
aF-0.0
aF0.0
aF0.0
aF0.0
aF0.0
aF0.0
aF0.0
aF0.0
aF0.0
aF0.0
aF0.0
aF0.0
aF0.0
aF-0.0
aF-0.0
aF-0.0
aF0.0
aF0.0
aF0.0
aF0.0
aF0.0
aF0.0
aF0.0
aF0.0
aF0.0
aF0.0
aF0.0
aF0.0
aF-0.0
aF-0.0
aF-0.0
aF0.0
aF0.0
aF0.0
aF0.0
aF0.0
aF0.0
aF0.0
aF0.0
aF0.0
aF0.0
aF0.0
aF0.0
aF0.0
aF0.0
aF0.0
aF0.0
aF-0.0
aF-0.0
aF-0.0
aF0.0
aF0.0
aF0.0
aF0.0
aF0.0
aF-0.0
aF0.0
aF0.0
aF0.0
aF0.0
aF0.0
aF0.0
aF-0.0
aF-0.0
aF-0.0
aF0.0
aF0.0
aF0.0
aF-0.0
aF-0.0
aF-0.0
aF0.0
aF0.0
aF0.0
aF0.0
aF0.0
aF0.0
aF0.0
aF0.0
aF0.0
aF0.0
aF0.0
aF0.0
aF-0.0
aF-0.0
aF-0.0
aF0.0
aF0.0
aF0.0
aF0.0
aF0.0
aF0.0
aF0.0
aF0.0
aF0.0
aF0.0
aF-0.0
aF-0.0
aF-0.0
aF0.0
aF0.0
aF0.0
aF-0.0
aF-0.0
aF-0.0
aF0.0
aF0.0
aF0.0
aF0.0
aF0.0
aF0.0
aF-0.0
aF-0.0
aF-0.0
aF0.0
aF0.0
aF0.0
aF-0.0
aF-0.0
aF-0.0
aF0.0
aF0.0
aF0.0
aF0.0
aF0.0
aF0.0
aF-0.0
aF-0.0
aF-0.0
aF0.0
aF0.0
aF0.0
aF-0.0
aF-0.0
aF-0.0
aF0.0
aF0.0
aF0.0
aF0.0
aF0.0
aF0.0
aF0.0
aF0.0
aF0.0
aF0.0
aF-0.0
aF-0.0
aF-0.0
aF0.0
aF0.0
aF0.0
aF0.0
aF-0.0
aF-0.0
aF0.0
aF0.0
aF0.0
aF0.0
aF0.0
aF0.0
aF-0.0
aF-0.0
aF-0.0
aF0.0
aF0.0
aF0.0
aF-0.0
aF-0.0
aF-0.0
aF0.0
aF0.0
aF0.0
aF0.0
aF0.0
aF0.0
aF-0.0
aF-0.0
aF-0.0
aF0.0
aF0.0
aF0.0
aF-0.0
aF-0.0
aF-0.0
aF0.0
aF0.0
aF0.0
aF0.0
aF0.0
aF0.0
aF-0.0
aF-0.0
aF-0.0
aF0.0
aF0.0
aF0.0
aF-0.0
aF-0.0
aF-0.0
aF0.0
aF0.0
aF0.0
aF0.0
aF0.0
aF0.0
aF0.0
aF0.0
aF0.0
aF0.0
aF0.0
aF0.0
aF-0.0
aF-0.0
aF-0.0
aF0.0
aF0.0
aF0.0
aF0.0
aF0.0
aF0.0
aF0.0
aF0.0
aF0.0
aF0.0
aF0.0
aF0.0
aF-0.0
aF-0.0
aF-0.0
aF0.0
aF0.0
aF0.0
aF0.0
aF0.0
aF0.0
aF0.0
aF0.0
aF0.0
aF0.0
aF0.0
aF0.0
aF-0.0
aF-0.0
aF-0.0
aF0.0
aF0.0
aF0.0
aF0.0
aF0.0
aF0.0
aF0.0
aF0.0
aF0.0
aF0.0
aF0.0
aF0.0
aF-0.0
aF-0.0
aF-0.0
aF0.0
aF0.0
aF0.0
aF0.0
aF0.0
aF0.0
aF0.0
aF0.0
aF0.0
aF0.0
aF0.0
aF0.0
aF-0.0
aF-0.0
aF-0.0
aF0.0
aF0.0
aF0.0
aF0.0
aF0.0
aF0.0
aF0.0
aF0.0
aF0.0
aF0.0
aF0.0
aF0.0
aF-0.0
aF-0.0
aF-0.0
aF0.0
aF0.0
aF0.0
aF0.0
aF0.0
aF0.0
aF-0.0
aF-0.0
aF-0.0
aF0.0
aF0.0
aF0.0
aF-0.0
aF-0.0
aF-0.0
aF0.0
aF0.0
aF0.0
aF0.0
aF0.0
aF0.0
aF0.0
aF0.0
aF0.0
aF0.0
aF0.0
aF0.0
aF-0.0
aF-0.0
aF-0.0
aF0.0
aF0.0
aF0.0
aF0.0
aF0.0
aF0.0
aF0.0
aF0.0
aF0.0
aF0.0
aF0.0
aF0.0
aF-0.0
aF-0.0
aF-0.0
aF0.0
aF0.0
aF0.0
aF0.0
aF-0.0
aF-0.0
aF0.0
aF0.0
aF0.0
aF0.0
aF0.0
aF0.0
aF-0.0
aF-0.0
aF-0.0
aF0.0
aF0.0
aF0.0
aF-0.0
aF-0.0
aF-0.0
aF0.0
aF0.0
aF0.0
aF0.0
aF0.0
aF0.0
aF0.0
aF0.0
aF0.0
aF0.0
aF0.0
aF0.0
aF-0.0
aF-0.0
aF-0.0
aF0.0
aF0.0
aF0.0
aF0.0
aF0.0
aF0.0
aF0.0
aF0.0
aF0.0
aF0.0
aF0.0
aF0.0
aF-0.0
aF-0.0
aF-0.0
aF0.0
aF0.0
aF0.0
aF0.0
aF0.0
aF0.0
aF0.0
aF0.0
aF0.0
aF0.0
aF0.0
aF0.0
aF-0.0
aF-0.0
aF-0.0
aF0.0
aF0.0
aF0.0
aF0.0
aF0.0
aF0.0
aF-0.0
aF-0.0
aF0.0
aF0.0
aF0.0
aF0.0
aF-0.0
aF-0.0
aF-0.0
aF0.0
aF0.0
aF0.0
aF0.0
aF0.0
aF0.0
aF-0.0
aF-0.0
aF-0.0
aF0.0
aF0.0
aF0.0
aF-0.0
aF-0.0
aF-0.0
aF0.0
aF0.0
aF0.0
aF0.0
aF0.0
aF0.0
aF-0.0
aF-0.0
aF-0.0
aF0.0
aF0.0
aF0.0
aF-0.0
aF-0.0
aF-0.0
aF0.0
aF0.0
aF0.0
aF0.0
aF0.0
aF0.0
aF-0.0
aF-0.0
aF-0.0
aF0.0
aF0.0
aF0.0
aF-0.0
aF-0.0
aF-0.0
aF0.0
aF0.0
aF0.0
aF0.0
aF0.0
aF0.0
aF-0.0
aF-0.0
aF-0.0
aF0.0
aF0.0
aF0.0
aF-0.0
aF-0.0
aF-0.0
aF0.0
aF0.0
aF0.0
aF0.0
aF0.0
aF0.0
aF0.0
aF0.0
aF0.0
aF0.0
aF0.0
aF0.0
aF-0.0
aF-0.0
aF-0.0
aF0.0
aF0.0
aF0.0
aF0.0
aF0.0
aF0.0
aF-0.0
aF-0.0
aF-0.0
aF0.0
aF0.0
aF0.0
aF-0.0
aF-0.0
aF-0.0
aF0.0
aF0.0
aF0.0
aF0.0
aF0.0
aF0.0
aF-0.0
aF-0.0
aF0.0
aF0.0
aF0.0
aF0.0
aF0.0
aF0.0
aF0.0
a.