(lp1
F0
aF0
aF0
aF0
aF0
aF0
aF0
aF0
aF0
aF0
aF-0
aF-0
aF-0
aF-0
aF-0
aF0
aF0
aF0
aF0
aF0
aF-0
aF-0
aF-0
aF-0
aF-0
aF0
aF0
aF0
aF0
aF0
aF0
aF0
aF0
aF0
aF0
aF0
aF0
aF0
aF0
aF0
aF0
aF0
aF-0
aF-0
aF-0
aF-0
aF0
aF0
aF0
aF-0
aF-0
aF-0
aF0
aF0
aF0
aF0
aF0
aF0
aF0
aF0
aF0
aF0
aF0
aF0
aF0
aF-0
aF-0
aF-0
aF0
aF0
aF0
aF0
aF0
aF0
aF0
aF0
aF0
aF0
aF0
aF0
aF0
aF0
aF-0
aF0
aF0
aF-0
aF-0
aF0
aF0
aF0
aF-0
aF-0
aF-0
aF0
aF0
aF0
aF0
aF0
aF0
aF0
aF0
aF0
aF0
aF0
aF0
aF0
aF0
aF0
aF-0
aF-0
aF-0
aF0
aF0
aF0
aF0
aF0
aF0
aF0
aF0
aF0
aF0
aF0
aF0
aF-0
aF-0
aF-0
aF0
aF0
aF0
aF0
aF0
aF0
aF0
aF0
aF0
aF0
aF-0
aF-0
aF-0
aF-0
aF-0
aF0
aF0
aF0
aF0
aF0
aF0
aF0
aF0
aF0
aF-0
aF0
aF0
aF0
aF0
aF0
aF-0
aF-0
aF-0
aF-0
aF-0
aF0
aF0
aF0
aF0
aF0
aF0
aF0
aF0
aF0
aF0
aF-0
aF0
aF-0
aF0
aF0
aF0
aF0
aF0
aF0
aF0
aF-0
aF-0
aF-0
aF-0
aF-0
aF0
aF0
aF0
aF0
aF0
aF0
aF0
aF0
aF0
aF0
aF0
aF0
aF0
aF0
aF0
aF0
aF0
aF0
aF0
aF0
aF-0
aF-0
aF-0
aF-0
aF-0
aF0
aF0
aF0
aF0
aF0
aF-0
aF-0
aF-0
aF-0
aF-0
aF0
aF0
aF0
aF0
aF0
aF0
aF0
aF0
aF-0
aF0
aF0
aF0
aF0
aF0
aF0
aF0
aF0
aF0
aF0
aF0
aF0
aF0
aF0
aF0
aF0
aF-0
aF0
aF0
aF-0
aF0
aF0
aF0
aF0
aF0
aF0
aF0
aF0
aF0
aF0
aF0
aF0
aF0
aF0
aF0
aF0
aF-0
aF-0
aF-0
aF-0
aF-0
aF-0
aF-0
aF-0
aF-0
aF0
aF0
aF0
aF0
aF0
aF-0
aF-0
aF-0
aF-0
aF-0
aF0
aF0
aF0
aF0
aF0
aF0
aF0
aF0
aF0
aF0
aF0
aF0
aF0
aF0
aF0
aF0
aF0
aF0
aF0
aF0
aF0
aF0
aF0
aF0
aF0
aF0
aF0
aF0
aF0
aF0
aF-0
aF-0
aF0
aF0
aF0
aF0
aF0
aF0
aF0
aF0
aF-0
aF-0
aF-0
aF-0
aF-0
aF0
aF0
aF0
aF0
aF0
a.